
================================================================================
  TASK 1: PATTERN SCANNER ANALYSIS
================================================================================

1.1 IMPORT RESOLVER FUNCTION (RVA ~0x8BEB8)
    Disassembly of code at resolver RVA 0x8beb0:

1.2 PATTERN SCANNING FUNCTION CANDIDATES

    === Code near 0x6ce0 ===

    === Code near 0x6d70 ===
    0x6d70: add byte ptr [rcx + 0xbf082], cl
    0x6d76: add byte ptr [rax - 0x75], cl
    0x6d79: or eax, 0x1177fa
    0x6d7e: mov rax, qword ptr [rcx + 0x1368]
    0x6d85: mov byte ptr [rax + 0xcc], 1
    0x6d8c: mov rax, qword ptr [rcx + 0x1368]
    0x6d93: cmp byte ptr [rax + 0xcf], 0
    0x6d9a: jne 0x6db3
    0x6d9c: mov qword ptr [rsp + 0x40], 0
    0x6da5: movaps xmm1, xmm9
    0x6da9: lea rcx, [rsp + 0x40]
    0x6dae: call 0x4cb30
    0x6db3: lea rdx, [rip + 0x36c3f6]
    0x6dba: lea rcx, [rip + 0xf7787]
    0x6dc1: call 0x71490
    0x6dc6: lea rdi, [rip + 0xf811b]
    0x6dcd: cmp byte ptr [rip + 0x36c3dc], 0
    0x6dd4: je 0x6f5e
    0x6dda: movaps xmm1, xmm9
    0x6dde: xorps xmm0, xmm0
    0x6de1: call 0x4cca0
    0x6de6: mov rdx, qword ptr [rip + 0x11778b]
    0x6ded: or dword ptr [rdx + 0x1d00], 1
    0x6df4: mov dword ptr [rdx + 0x1d18], 0x42700000
    0x6dfe: mov qword ptr [rsp + 0x28], rdi
    0x6e03: mov qword ptr [rsp + 0x20], r12
    0x6e08: xor r9d, r9d
    0x6e0b: lea r8, [rip + 0x36c3a2]
    0x6e12: lea rcx, [rip + 0xf7747]
    0x6e19: call 0x75aa0
    0x6e1e: test al, al
    0x6e20: je 0x6e47
    0x6e22: mov eax, dword ptr [rip + 0x36c38c]
    0x6e28: cmp eax, 1
    0x6e2b: jge 0x6e36
    0x6e2d: mov eax, r13d
    0x6e30: mov dword ptr [rip + 0x36c37e], eax
    0x6e36: cmp eax, 0x270f
    0x6e3b: jle 0x6e47
    0x6e3d: mov dword ptr [rip + 0x36c36d], 0x270f
    0x6e47: movaps xmm1, xmm9
    0x6e4b: xorps xmm0, xmm0
    0x6e4e: call 0x4cca0
    0x6e53: mov r8d, r13d
    0x6e56: xor edx, edx
    0x6e58: lea rcx, [rip + 0xf7711]
    0x6e5f: call 0x6eba0
    0x6e64: cmp byte ptr [rip + 0x36c33d], 0

    === Code near 0x6d90 ===
    0x6d90: adc eax, dword ptr [rax]
    0x6d92: add byte ptr [rax + 0xcfb8], al
    0x6d98: add byte ptr [rax], al
    0x6d9a: jne 0x6db3
    0x6d9c: mov qword ptr [rsp + 0x40], 0
    0x6da5: movaps xmm1, xmm9
    0x6da9: lea rcx, [rsp + 0x40]
    0x6dae: call 0x4cb30
    0x6db3: lea rdx, [rip + 0x36c3f6]
    0x6dba: lea rcx, [rip + 0xf7787]
    0x6dc1: call 0x71490
    0x6dc6: lea rdi, [rip + 0xf811b]
    0x6dcd: cmp byte ptr [rip + 0x36c3dc], 0
    0x6dd4: je 0x6f5e
    0x6dda: movaps xmm1, xmm9
    0x6dde: xorps xmm0, xmm0
    0x6de1: call 0x4cca0
    0x6de6: mov rdx, qword ptr [rip + 0x11778b]
    0x6ded: or dword ptr [rdx + 0x1d00], 1
    0x6df4: mov dword ptr [rdx + 0x1d18], 0x42700000
    0x6dfe: mov qword ptr [rsp + 0x28], rdi
    0x6e03: mov qword ptr [rsp + 0x20], r12
    0x6e08: xor r9d, r9d
    0x6e0b: lea r8, [rip + 0x36c3a2]
    0x6e12: lea rcx, [rip + 0xf7747]
    0x6e19: call 0x75aa0
    0x6e1e: test al, al
    0x6e20: je 0x6e47
    0x6e22: mov eax, dword ptr [rip + 0x36c38c]
    0x6e28: cmp eax, 1
    0x6e2b: jge 0x6e36
    0x6e2d: mov eax, r13d
    0x6e30: mov dword ptr [rip + 0x36c37e], eax
    0x6e36: cmp eax, 0x270f
    0x6e3b: jle 0x6e47
    0x6e3d: mov dword ptr [rip + 0x36c36d], 0x270f
    0x6e47: movaps xmm1, xmm9
    0x6e4b: xorps xmm0, xmm0
    0x6e4e: call 0x4cca0
    0x6e53: mov r8d, r13d
    0x6e56: xor edx, edx
    0x6e58: lea rcx, [rip + 0xf7711]
    0x6e5f: call 0x6eba0
    0x6e64: cmp byte ptr [rip + 0x36c33d], 0
    0x6e6b: je 0x6f5e
    0x6e71: mov rbx, qword ptr [rip + 0x36c340]
    0x6e78: test rbx, rbx
    0x6e7b: je 0x6f5e
    0x6e81: call qword ptr [rip + 0xb25e9]
    0x6e87: mov rcx, rax
    0x6e8a: sub rcx, rbx
    0x6e8d: xorps xmm2, xmm2

    === Code near 0x11d70 ===
    0x11d70: lea rcx, [rip + 0xedda9]
    0x11d77: call 0x6f590
    0x11d7c: mov ecx, r15d
    0x11d7f: call 0x39360
    0x11d84: call 0x72a30
    0x11d89: mov r8d, dword ptr [rip + 0x10c8a8]
    0x11d90: mov edx, dword ptr [rip + 0x10c8b2]
    0x11d96: lea rcx, [rip + 0xedddb]
    0x11d9d: call 0x6f390
    0x11da2: xor dil, dil
    0x11da5: mov ebx, r14d
    0x11da8: movss xmm11, dword ptr [rip + 0xf4ecb]
    0x11db1: cmp ebx, 0xa
    0x11db4: je 0x11e20
    0x11db6: mov ecx, ebx
    0x11db8: call 0x34030
    0x11dbd: test al, al
    0x11dbf: jne 0x11e20
    0x11dc1: test dil, dil
    0x11dc4: jne 0x11dfd
    0x11dc6: movss dword ptr [rsp + 0x20], xmm11
    0x11dcd: movaps xmm3, xmm6
    0x11dd0: movaps xmm2, xmm10
    0x11dd4: movaps xmm1, xmm13
    0x11dd8: lea rcx, [rbp + 0xdd8]
    0x11ddf: call 0x5d90
    0x11de4: mov rdx, rax
    0x11de7: xor ecx, ecx
    0x11de9: call 0x392f0
    0x11dee: lea rcx, [rip + 0xedd9b]
    0x11df5: call 0x6f390
    0x11dfa: mov dil, 1
    0x11dfd: movaps xmm1, xmm12
    0x11e01: movaps xmm0, xmm14
    0x11e05: call 0x4cca0
    0x11e0a: mov ecx, ebx
    0x11e0c: call 0x34010
    0x11e11: mov rdx, rax
    0x11e14: lea rcx, [rip + 0xedd81]
    0x11e1b: call 0x6f390
    0x11e20: inc ebx
    0x11e22: cmp ebx, 0xc
    0x11e25: jl 0x11db1
    0x11e27: movss xmm11, dword ptr [rip + 0xf4ea8]
    0x11e30: test dil, dil
    0x11e33: je 0x11e3d
    0x11e35: mov ecx, r15d
    0x11e38: call 0x39360
    0x11e3d: call 0x731e0
    0x11e42: call 0x72a30
    0x11e47: mov byte ptr [rsp + 0x61], 0
    0x11e4c: mov byte ptr [rsp + 0x62], 0
    0x11e51: movss dword ptr [rsp + 0x20], xmm13
    0x11e58: movss xmm3, dword ptr [rip + 0xf4d90]
    0x11e60: movss xmm2, dword ptr [rip + 0xf4e04]
    0x11e68: movaps xmm1, xmm13

    === Code near 0x8b880 ===
    0x8b880: or dword ptr [rax + 0xf], ecx
    0x8b883: mov edx, 0x8e83e35
    0x8b888: add byte ptr [rdi], al
    0x8b88a: mov rbx, qword ptr [rsp + 0x28]
    0x8b88f: xor eax, eax
    0x8b891: mov rbp, qword ptr [rsp + 0x30]
    0x8b896: mov rsi, qword ptr [rsp + 0x38]
    0x8b89b: add rsp, 0x10
    0x8b89f: pop rdi
    0x8b8a0: ret 
    0x8b8a1: int3 
    0x8b8a2: int3 
    0x8b8a3: int3 
    0x8b8a4: int3 
    0x8b8a5: int3 
    0x8b8a6: int3 
    0x8b8a7: int3 
    0x8b8a8: int3 
    0x8b8a9: int3 
    0x8b8aa: int3 
    0x8b8ab: int3 
    0x8b8ac: int3 
    0x8b8ad: int3 
    0x8b8ae: int3 
    0x8b8af: int3 
    0x8b8b0: int3 
    0x8b8b1: int3 
    0x8b8b2: int3 
    0x8b8b3: int3 
    0x8b8b4: int3 
    0x8b8b5: int3 
    0x8b8b6: nop word ptr [rax + rax]
    0x8b8c0: sub rsp, 0x10
    0x8b8c4: mov qword ptr [rsp], r10
    0x8b8c8: mov qword ptr [rsp + 8], r11
    0x8b8cd: xor r11, r11
    0x8b8d0: lea r10, [rsp + 0x18]
    0x8b8d5: sub r10, rax
    0x8b8d8: cmovb r10, r11
    0x8b8dc: mov r11, qword ptr gs:[0x10]
    0x8b8e5: cmp r10, r11
    0x8b8e8: jae 0x8b900
    0x8b8ea: and r10w, 0xf000
    0x8b8f0: lea r11, [r11 - 0x1000]
    0x8b8f7: mov byte ptr [r11], 0
    0x8b8fb: cmp r10, r11
    0x8b8fe: jne 0x8b8f0
    0x8b900: mov r10, qword ptr [rsp]
    0x8b904: mov r11, qword ptr [rsp + 8]
    0x8b909: add rsp, 0x10
    0x8b90d: ret 
    0x8b90e: int3 
    0x8b90f: int3 
    0x8b910: sub rsp, 0x48
    0x8b914: lea rcx, [rsp + 0x20]
    0x8b919: call 0x89c4c
    0x8b91e: lea rdx, [rip + 0x8c2f3]
    0x8b925: lea rcx, [rsp + 0x20]
    0x8b92a: call 0x8d258
    0x8b92f: int3 
    0x8b930: mov eax, 1
    0x8b935: ret 
    0x8b936: int3 
    0x8b937: int3 
    0x8b938: xor eax, eax
    0x8b93a: cmp dword ptr [rip + 0x2e8620], eax
    0x8b940: setne al
    0x8b943: ret 
    0x8b944: mov dword ptr [rip + 0x91c32], 0
    0x8b94e: ret 
    0x8b94f: int3 
    0x8b950: mov qword ptr [rsp + 8], rbx
    0x8b955: push rbp
    0x8b956: lea rbp, [rsp - 0x4c0]
    0x8b95e: sub rsp, 0x5c0
    0x8b965: mov ebx, ecx
    0x8b967: mov ecx, 0x17
    0x8b96c: call qword ptr [rip + 0x2d836]
    0x8b972: test eax, eax
    0x8b974: je 0x8b97a
    0x8b976: mov ecx, ebx
    0x8b978: int 0x29
    0x8b97a: mov ecx, 3

1.3 WILDCARD HANDLING (?? matching)
    Searching for comparisons with 0x3F ('?') or 0xCC bytes...
    Found 12 comparisons with wildcard-like sentinel values
    0x69f5: cmp with 0x002A
    0x6f24: cmp with 0x002A
    0x79af: cmp with 0x002A
    0xb0c0: cmp with 0x003F
    0x27058: cmp with 0x003F
    0x2711d: cmp with 0x003F
    0x2ab0b: cmp with 0x003F
    0x2adab: cmp with 0x003F
    0x38480: cmp with 0x002A
    0x5fce6: cmp with 0x003F
    0x60221: cmp with 0x003F
    0x66d25: cmp with 0x003F

1.4 BYTE-BY-BYTE COMPARISON LOOPS (pattern scan loops)
    Looking for tight comparison loops...
    Found 1182 byte-comparison sites (potential scanner code)
    Sample regions with context:
    --- Near 0x1004 ---
        0xfe4: iretd 
        0xfe5: xor edx, edx
        0xfe7: xor ecx, ecx
        0xfe9: call qword ptr [rip + 0xb84e1]
        0xfef: xorps xmm0, xmm0
        0xff2: movups xmmword ptr [rsi], xmm0
        0xff5: mov qword ptr [rsi + 0x10], r12
        0xff9: mov qword ptr [rsi + 0x18], r12
        0xffd: lea rax, [rbp - 0x70]
        0x1001: inc rdi
    >>> 0x1004: cmp byte ptr [rax + rdi], 0
        0x1008: jne 0x1001
        0x100a: mov r8, rdi
        0x100d: lea rdx, [rbp - 0x70]
        0x1011: mov rcx, rsi
        0x1014: call 0x4c60
        0x1019: nop 
        0x101a: mov rdx, qword ptr [rsp + 0x68]
        0x101f: cmp rdx, 7
        0x1023: jbe 0x1058
        0x1025: lea rdx, [rdx*2 + 2]
        0x102d: mov rcx, qword ptr [rsp + 0x50]
        0x1032: mov rax, rcx
        0x1035: cmp rdx, 0x1000
        0x103c: jb 0x1053
        0x103e: add rdx, 0x27
    --- Near 0x178b ---
        0x176b: call 0x55f0
        0x1770: nop 
        0x1771: mov rcx, rbx
        0x1774: call 0x8a5a0
        0x1779: xor r8d, r8d
        0x177c: lea rdx, [rip + 0xc45ad]
        0x1783: mov rcx, r14
        0x1786: call 0x7f0
    >>> 0x178b: cmp byte ptr [r14 + 0x1d8], 0
        0x1793: je 0x17a7
        0x1795: xor r8d, r8d
        0x1798: lea rdx, [rip + 0xc45a9]
        0x179f: mov rcx, r14
        0x17a2: call 0x7f0
        0x17a7: mov bl, 1
        0x17a9: lea rcx, [rbp + 0xe90]
        0x17b0: call 0x4e30
        0x17b5: nop 
        0x17b6: lea rcx, [rsp + 0x58]
        0x17bb: call 0x4d20
        0x17c0: nop 
        0x17c1: lea rcx, [rbp + 0xef0]
    --- Near 0x19a3 ---
        0x1983: adc byte ptr [rax], al
        0x1985: movdqu xmmword ptr [rbp - 9], xmm1
        0x198a: mov word ptr [rbp - 0x19], 0x22
        0x1990: mov r8, 0xffffffffffffffff
        0x1997: nop word ptr [rax + rax]
        0x19a0: inc r8
    >>> 0x19a3: cmp byte ptr [rax + r8], 0
        0x19a8: jne 0x19a0
        0x19aa: mov rdx, rax
        0x19ad: lea rcx, [rbp - 0x19]
        0x19b1: call 0x5010
        0x19b6: xorps xmm0, xmm0
        0x19b9: movups xmmword ptr [rbp + 7], xmm0
        0x19bd: xorps xmm1, xmm1
        0x19c0: movdqu xmmword ptr [rbp + 0x17], xmm1
        0x19c5: movups xmm0, xmmword ptr [rax]
        0x19c8: movups xmmword ptr [rbp + 7], xmm0
        0x19cc: movups xmm1, xmmword ptr [rax + 0x10]
        0x19d0: movups xmmword ptr [rbp + 0x17], xmm1
        0x19d4: mov qword ptr [rax + 0x10], r15
        0x19d8: mov qword ptr [rax + 0x18], 0xf
        0x19e0: mov byte ptr [rax], 0
    --- Near 0x1b53 ---
        0x1b33: jg 0x1b82
        0x1b35: test esi, 0x4900e745
        0x1b3b: mov eax, dword ptr [rsi]
        0x1b3d: cmp rbx, qword ptr [rax + 0x10]
        0x1b41: jae 0x1ba2
        0x1b43: mov rcx, rax
        0x1b46: mov rdx, qword ptr [rax + 0x18]
        0x1b4a: cmp rdx, 0xf
        0x1b4e: jbe 0x1b53
        0x1b50: mov rcx, qword ptr [rax]
    >>> 0x1b53: cmp byte ptr [rcx + rbx], 0x22
        0x1b57: je 0x1b99
        0x1b59: mov rcx, rax
        0x1b5c: cmp rdx, 0xf
        0x1b60: jbe 0x1b65
        0x1b62: mov rcx, qword ptr [rax]
        0x1b65: cmp byte ptr [rcx + rbx], 0x5c
        0x1b69: jne 0x1b77
        0x1b6b: lea rcx, [rbx + 1]
        0x1b6f: cmp rcx, qword ptr [rax + 0x10]
        0x1b73: cmovb rbx, rcx
        0x1b77: cmp rdx, 0xf
        0x1b7b: jbe 0x1b80
        0x1b7d: mov rax, qword ptr [rax]
        0x1b80: movzx edx, byte ptr [rax + rbx]
        0x1b84: inc rbx
        0x1b87: lea rcx, [rbp - 0x19]
        0x1b8b: call 0x4eb0
        0x1b90: mov rax, qword ptr [r14]
    --- Near 0x1b65 ---
        0x1b45: enter -0x74b8, 0x50
        0x1b49: sbb byte ptr [rax - 0x7d], cl
        0x1b4c: cli 
        0x1b4d: pcmpeqd mm0, qword ptr [rbx]
        0x1b50: mov rcx, qword ptr [rax]
        0x1b53: cmp byte ptr [rcx + rbx], 0x22
        0x1b57: je 0x1b99
        0x1b59: mov rcx, rax
        0x1b5c: cmp rdx, 0xf
        0x1b60: jbe 0x1b65
        0x1b62: mov rcx, qword ptr [rax]
    >>> 0x1b65: cmp byte ptr [rcx + rbx], 0x5c
        0x1b69: jne 0x1b77
        0x1b6b: lea rcx, [rbx + 1]
        0x1b6f: cmp rcx, qword ptr [rax + 0x10]
        0x1b73: cmovb rbx, rcx
        0x1b77: cmp rdx, 0xf
        0x1b7b: jbe 0x1b80
        0x1b7d: mov rax, qword ptr [rax]
        0x1b80: movzx edx, byte ptr [rax + rbx]
        0x1b84: inc rbx
        0x1b87: lea rcx, [rbp - 0x19]
        0x1b8b: call 0x4eb0
        0x1b90: mov rax, qword ptr [r14]
        0x1b93: cmp rbx, qword ptr [rax + 0x10]
        0x1b97: jb 0x1b43
        0x1b99: mov rcx, qword ptr [rbp - 0x21]
        0x1b9d: movdqu xmm1, xmmword ptr [rbp - 9]
    --- Near 0x1cf3 ---
    --- Near 0x30a2 ---
        0x3082: jmp 0x30ba
        0x3084: add byte ptr [rax], al
        0x3086: jne 0x309f
        0x3088: lea rdx, [rip + 0x2a9f1]
        0x308f: mov ecx, r13d
        0x3092: call qword ptr [rip + 0xb6410]
        0x3098: mov qword ptr [rip + 0x36eb91], rax
        0x309f: mov ecx, r14d
    >>> 0x30a2: cmp byte ptr [rip + 0x36ed87], 0
        0x30a9: cmovne ecx, r13d
        0x30ad: cmp byte ptr [rip + 0x36ed7d], 0
        0x30b4: je 0x30b8
        0x30b6: inc ecx
        0x30b8: cmp byte ptr [rip + 0x36ed73], 0
        0x30bf: je 0x30c3
        0x30c1: inc ecx
        0x30c3: cmp byte ptr [rip + 0x36ed69], 0
        0x30ca: je 0x30ce
        0x30cc: inc ecx
        0x30ce: cmp byte ptr [rip + 0x36ed5f], 0
        0x30d5: je 0x30d9
        0x30d7: inc ecx
        0x30d9: cmp byte ptr [rip + 0x36ed55], 0
        0x30e0: je 0x30e4
    --- Near 0x30ad ---
        0x308d: add al, byte ptr [rax]
        0x308f: mov ecx, r13d
        0x3092: call qword ptr [rip + 0xb6410]
        0x3098: mov qword ptr [rip + 0x36eb91], rax
        0x309f: mov ecx, r14d
        0x30a2: cmp byte ptr [rip + 0x36ed87], 0
        0x30a9: cmovne ecx, r13d
    >>> 0x30ad: cmp byte ptr [rip + 0x36ed7d], 0
        0x30b4: je 0x30b8
        0x30b6: inc ecx
        0x30b8: cmp byte ptr [rip + 0x36ed73], 0
        0x30bf: je 0x30c3
        0x30c1: inc ecx
        0x30c3: cmp byte ptr [rip + 0x36ed69], 0
        0x30ca: je 0x30ce
        0x30cc: inc ecx
        0x30ce: cmp byte ptr [rip + 0x36ed5f], 0
        0x30d5: je 0x30d9
        0x30d7: inc ecx
        0x30d9: cmp byte ptr [rip + 0x36ed55], 0
        0x30e0: je 0x30e4
        0x30e2: inc ecx
        0x30e4: cmp byte ptr [rip + 0x36ed4b], 0
        0x30eb: je 0x30ef
    --- Near 0x30b8 ---
        0x3098: mov qword ptr [rip + 0x36eb91], rax
        0x309f: mov ecx, r14d
        0x30a2: cmp byte ptr [rip + 0x36ed87], 0
        0x30a9: cmovne ecx, r13d
        0x30ad: cmp byte ptr [rip + 0x36ed7d], 0
        0x30b4: je 0x30b8
        0x30b6: inc ecx
    >>> 0x30b8: cmp byte ptr [rip + 0x36ed73], 0
        0x30bf: je 0x30c3
        0x30c1: inc ecx
        0x30c3: cmp byte ptr [rip + 0x36ed69], 0
        0x30ca: je 0x30ce
        0x30cc: inc ecx
        0x30ce: cmp byte ptr [rip + 0x36ed5f], 0
        0x30d5: je 0x30d9
        0x30d7: inc ecx
        0x30d9: cmp byte ptr [rip + 0x36ed55], 0
        0x30e0: je 0x30e4
        0x30e2: inc ecx
        0x30e4: cmp byte ptr [rip + 0x36ed4b], 0
        0x30eb: je 0x30ef
        0x30ed: inc ecx
        0x30ef: cmp byte ptr [rip + 0x36ed41], 0
        0x30f6: je 0x30fa
    --- Near 0x30c3 ---
        0x30a3: cmp eax, 0x36ed87
        0x30a8: add byte ptr [rcx + 0xf], al
        0x30ab: int 0x80
        0x30ae: cmp eax, 0x36ed7d
        0x30b3: add byte ptr [rdx + rax - 1], dh
        0x30b7: rol dword ptr [rax + 0x36ed733d], 0
        0x30be: add byte ptr [rdx + rax - 1], dh
        0x30c2: rol dword ptr [rax + 0x36ed693d], 0
        0x30c9: add byte ptr [rdx + rax - 1], dh
        0x30cd: rol dword ptr [rax + 0x36ed5f3d], 0
        0x30d4: add byte ptr [rdx + rax - 1], dh
        0x30d8: rol dword ptr [rax + 0x36ed553d], 0
        0x30df: add byte ptr [rdx + rax - 1], dh
        0x30e3: rol dword ptr [rax + 0x36ed4b3d], 0
        0x30ea: add byte ptr [rdx + rax - 1], dh
        0x30ee: rol dword ptr [rax + 0x36ed413d], 0
        0x30f5: add byte ptr [rdx + rax - 1], dh
        0x30f9: rol dword ptr [rax + 0x36ed373d], 0

1.5 SIMD IN PATTERN SCANNING
    SIMD in scanner region (0x6000-0x90000): 5937 instructions
    0x6064: movaps
    0x6068: movaps
    0x606c: movaps
    0x6071: movaps
    0x6076: movaps
    0x6187: movd
    0x61ad: movd
    0x62ca: movups
    0x62d1: movups
    0x62f0: movups
    0x62f5: movups
    0x631f: movups
    0x632d: movups
    0x633a: movdqa
    0x6350: movups
    0x636b: movaps
    0x637c: movdqa
    0x638b: movdqa
    0x6395: movdqa
    0x639d: movups

1.6 PATTERN SCANNING ALGORITHM RECONSTRUCTION (pseudocode from disassembly)
    Analyzing the primary scanner function...
    === Full disassembly of function at 0x6ce0 ===

================================================================================
  TASK 2: MEMCPY/MEMSET VARIANTS
================================================================================

2.1 REP MOVSB / REP STOSB
    REP MOVS/STOS variants: 6
    0x3b9bf: rep stosw
      0x3b9af: mov r14, 0xffffffffffffffff
      0x3b9b6: movsx rax, r14w
      0x3b9ba: mov ecx, 0x9a
      0x3b9bf: rep stosw word ptr [rdi], ax
      0x3b9c2: mov rcx, rdx
      0x3b9c5: call 0x37250
      0x3b9ca: mov rcx, rbx
      0x3b9cd: call 0x37250
      0x3b9d2: nop 
      0x3b9d3: mov qword ptr [rsi + 0x1d00], rbp
    0x3cfc5: rep stosw
      0x3cfb5: add byte ptr [rax], al
      0x3cfb7: mov qword ptr [rbx + 0x1400], r12
      0x3cfbe: mov qword ptr [rbx + 0x1388], r12
      0x3cfc5: rep stosw word ptr [rdi], ax
      0x3cfc8: lea rcx, [rbx + 0x1cc8]
      0x3cfcf: call 0x37250
      0x3cfd4: lea rcx, [rbx + 0x1cd8]
      0x3cfdb: call 0x37250
    0x66067: rep stosd
      0x66057: lea rdi, [r15 + rcx*4]
      0x6605b: test ebx, ebx
      0x6605d: je 0x66069
      0x6605f: mov eax, 0xffffff
      0x66064: mov rcx, rbx
      0x66067: rep stosd dword ptr [rdi], eax
      0x66069: mov rdi, rbx
      0x6606c: test esi, esi
      0x6606e: je 0x66089
      0x66070: lea rax, [rbx + r14]
      0x66074: mov r8d, esi
      0x66077: shl r8, 2
      0x6607b: lea rcx, [r15 + rax*4]
      0x6607f: mov edx, 0xffffffff
    0x660a0: rep stosd
      0x66090: add eax, edi
      0x66092: mov ecx, ebp
      0x66094: add rax, r14
      0x66097: lea rdi, [r15 + rax*4]
      0x6609b: mov eax, 0xffffff
      0x660a0: rep stosd dword ptr [rdi], eax
      0x660a2: movzx edi, word ptr [r12 + 4]
      0x660a8: xorps xmm1, xmm1
      0x660ab: movzx edx, word ptr [r12 + 6]
      0x660b1: xorps xmm0, xmm0
      0x660b4: add edx, esi
      0x660b6: xorps xmm3, xmm3
      0x660b9: mov eax, edx
      0x660bb: lea ecx, [rdx + 1]
    0x669e8: rep stosw
      0x669d8: clc 
      0x669d9: add ecx, dword ptr [rax + 0x63]
      0x669dc: enter -0x3eb8, -0x1f
      0x669e0: add al, 0x48
      0x669e2: shr ecx, 1
      0x669e4: movzx eax, r11w
      0x669e8: rep stosw word ptr [rdi], ax
      0x669eb: mov rdi, qword ptr [rsp + 0x30]
      0x669f0: movsxd rcx, r8d
      0x669f3: cmp rcx, rbx
      0x669f6: jge 0x66a11
      0x669f8: nop dword ptr [rax + rax]
      0x66a00: mov rax, qword ptr [rsi + 8]
    0x68b59: rep stosd
      0x68b49: clc 
      0x68b4a: add cl, byte ptr [rax + 0x63]
      0x68b4d: enter -0x74b7, -0x3d
      0x68b51: shl rcx, 4
      0x68b55: shr rcx, 2
      0x68b59: rep stosd dword ptr [rdi], eax
      0x68b5b: movsxd rdx, r8d
      0x68b5e: cmp rdx, rsi
      0x68b61: jge 0x68b82
      0x68b63: nop dword ptr [rax]
      0x68b67: nop word ptr [rax + rax]
      0x68b70: mov rcx, qword ptr [rbx + 8]
      0x68b74: mov eax, dword ptr [r14]
    REP CMPS/SCAS variants: 0

2.2 SIMD MEMORY MOVES
    SIMD memory move instruction counts:
    movaps: 3250
    movups: 1945
    movdqa: 209
    movdqu: 195

2.3 XOR-BASED ZEROING (xor reg, reg pattern)
    XOR reg,reg (zero register): 2535 occurrences

================================================================================
  TASK 3: STRING COMPARE/HASH FUNCTIONS
================================================================================

3.1 CRC32 (SSE4.2)
    CRC32 instructions: 0

3.2 DJB2 HASH PATTERNS (hash = hash*33 + c)
    Potential djb2 patterns (scale LEAs): 499
    0x8606: LEA with scale 8
    0x8782: LEA with scale 4
    0x8892: LEA with scale 4
    0x8c72: LEA with scale 4
    0x95a2: LEA with scale 4
    0x96c2: LEA with scale 4
    0x99e4: LEA with scale 4
    0xa97c: LEA with scale 4
    0x14580: LEA with scale 8
    0x145aa: LEA with scale 8
    0x14628: LEA with scale 8
    0x158d7: LEA with scale 8
    0x15901: LEA with scale 8
    0x1592b: LEA with scale 8
    0x1647c: LEA with scale 8

3.3 FNV HASH MAGIC CONSTANTS
    FNV-1a hash constants found: 0

3.4 MURMURHASH CONSTANTS
    MurmurHash constants found: 0

3.5 CMPSB/SCASB (string comparison)
    String compare/scan instructions: 0

================================================================================
  TASK 4: HTTP CLIENT ANALYSIS
================================================================================

4.1 HTTP STRING REFERENCES
    [winhttp] RVA 0x101808: "winhttp.dll"
    [wininet] RVA 0x1021f8: "wininet.dll"
    [libcurl] RVA 0x1021c8: "libcurl.dll"
    [libcurl] RVA 0x1021d8: "libcurl-x64.dll"
    [libcurl] RVA 0x1026cd: "libcurl at %p"
    [curl] RVA 0x102193: "curl_easy_perform %s h=%p"
    [curl] RVA 0x1021cb: "curl.dll"
    [curl] RVA 0x1021db: "curl-x64.dll"
      ... 10 more occurrences
    [Content-Type] RVA 0x1020e8: "Content-Type:"
    [Authorization] RVA 0x1020b0: "Authorization:"
    [https://] RVA 0xc624c: "https://api.live.prod.thehelldiversgame.com/api/Operation/Mission/end"
    [https://] RVA 0xc6ed0: "https://api.live.prod.thehelldiversgame.com/api/Operation/Mission/end"
    [https://] RVA 0xcafbc: "https://api.live.prod.thehelldiversgame.com/api/Operation/Mission/end"
      ... 19 more occurrences
    [Cookie:] RVA 0x1020c0: "Cookie:"
    [X-Session] RVA 0x1020c8: "X-Session"
    [X-Auth] RVA 0x1020d4: "X-Auth"
    [X-Token] RVA 0x1020e0: "X-Token"
    [X-Signature] RVA 0x1020a0: "X-Signature:"
    [Bearer ] RVA 0xfdf0f: "Bearer of the Standard"
    [api.live.prod] RVA 0xc6254: "api.live.prod.thehelldiversgame.com/api/Operation/Mission/end"
    [api.live.prod] RVA 0xc6ed8: "api.live.prod.thehelldiversgame.com/api/Operation/Mission/end"
    [api.live.prod] RVA 0xcafc4: "api.live.prod.thehelldiversgame.com/api/Operation/Mission/end"
      ... 17 more occurrences
    [libertea] RVA 0xc5c78: "libertea_replay_cap.json"
    [libertea] RVA 0xff3e2: "libertea_main"

4.2 WINHTTP API RESOLUTION CODE
    winhttp.dll string at 0x101808
    Code near winhttp.dll reference:
    0x101508: imul ebp, dword ptr [rsi + 0x73], 0x6c6c6174
    0x10150f: and byte ptr [rsi + 0x61], ah
    0x101512: imul ebp, dword ptr [rbp + riz*2 + 0x64], 0x65530021
    0x10151a: je 0x101591
    0x10151c: jo 0x10153e

4.3 LIBCURL API RESOLUTION CODE
    libcurl.dll string at 0x1021c8
    Code near libcurl.dll reference:
    0x101fc8: imul r14d, dword ptr [rbx + 0x70], 0x68637461
    0x101fd0: add byte ptr [rax], al
    0x101fd2: add byte ptr [rax], al
    0x101fd4: insb byte ptr [rdi], dx
    0x101fd5: outsd dx, dword ptr [rsi]

4.4 HTTP REQUEST METHOD STRINGS

================================================================================
  TASK 5: JSON PARSER ANALYSIS
================================================================================

5.1 JSON LIBRARY DETECTION
    No standard JSON library symbols found
    Searching for custom JSON parser patterns...

5.2 JSON DELIMITER CHARACTER COMPARISONS
    JSON delimiter comparisons: 22
    JSON parsing regions (grouped): 11
    Region 0x2a821-0x2a849: chars :, ", "
    Region 0x2abcd-0x2ace4: chars :, :
    Region 0x3842e-0x38487: chars s, s

5.3 JSON FIELD NAME STRINGS
    'missionId': RVA 0x100766 "missionId=%s actId32=0x%08X objId=0x%08X pids=%d (retry=%d) "
    'capturedWarTime': RVA 0xc5cc0 "capturedWarTime "
    'entityDeep': RVA 0xc5d00 "entityDeep "
    'entityDataDeep': RVA 0xc5d10 "entityDataDeep "
    'serObj': RVA 0xc5cd0 "serObjOrigAddr "
    'slotData': RVA 0xc5cf0 "slotData "
    'amount': RVA 0xff7a0 "amounts awarded at end of mission (-1 = default) "
    'status': RVA 0x101e8a "status=%ld size=%zu fwd=%s "

================================================================================
  TASK 6: IMGUI CUSTOMIZATION
================================================================================

6.1 IMGUI VERSION DETECTION
    Total ImGui string references: 15
    "Button": 4x
    "Combo": 4x
    "Shortcut": 3x
    "ImGui": 2x
    "Dear ImGui": 1x
    "NewFrame": 1x

6.2 IMGUI INIT CODE
    RVA 0xff128: "wglSwapIntervalEXT "

6.3 CUSTOM WIDGET IDs
    "##libertea_main": at RVA 0xff3e0
    "##content_area": at RVA 0xff450
    "##farming_scroll": at RVA 0xff460
    "##sc_scroll": at RVA 0xff988
    "##replay_scroll": at RVA 0xff998
    "##log_scroll": at RVA 0xffa30
    "##misc_scroll": at RVA 0xffb10
    "##lock_screen": at RVA 0xff1f0
    "##userinput": at RVA 0xff278
    "##passinput": at RVA 0xff298
    "##keyinput": at RVA 0xff2a8
    "##sub_info": at RVA 0xff338
    "##SCTimer": at RVA 0xfe9f0
    "##goal": at RVA 0xfebd3
    "##spd": at RVA 0xffbce
    "##fov": at RVA 0xffddb
    "##fxp": at RVA 0xff50d
    "##fmed": at RVA 0xff529
    "##fslips": at RVA 0xff53e
    "##diff": at RVA 0xff59d
    "##samp": at RVA 0xff6d8
    "##bmf": at RVA 0xfe66f
    "##bmo": at RVA 0xfe65e
    "##afk": at RVA 0xfe68b
    "##wxpovr": at RVA 0xfeece
    "##ag": at RVA 0xfef0c
    "##sg": at RVA 0xfef41
    "##ap_armor": at RVA 0xfff0d
    "##ap_pass": at RVA 0xfff1f
    "##we": at RVA 0xf8951

================================================================================
  TASK 7: THREADING ANALYSIS
================================================================================

7.1 THREAD CREATION APIs

7.2 SYNCHRONIZATION APIs
    "InitializeCriticalSection": 1 references

7.3 WM_SC_DISPATCH (UI Thread Message)
    WM_SC_DISPATCH at RVA 0x103ed1
    0x103dd1: add byte ptr [rax], al
    0x103dd3: add dword ptr [rcx], eax
    0x103dd5: add dword ptr [rcx], eax
    0x103dd7: add byte ptr [rax], al
    0x103dd9: add byte ptr [rax], al
    0x103ddb: add byte ptr [rax], al
    0x103ddd: add byte ptr [rax], al
    0x103ddf: add byte ptr [rax], al
    0x103de1: add byte ptr [rax], al
    0x103de3: add byte ptr [rax], al
    0x103de5: add byte ptr [rax], al
    0x103de7: add byte ptr [rax], al
    0x103de9: add byte ptr [rax], al
    0x103deb: add byte ptr [rax], al
    0x103ded: add byte ptr [rax], al
    0x103def: add byte ptr [rax], al
    0x103df1: add byte ptr [rax], al
    0x103df3: add byte ptr [rax], al
    0x103df5: add byte ptr [rax], al
    0x103df7: add byte ptr [rax], al
    0x103df9: add byte ptr [rax], al
    0x103dfb: add byte ptr [rax], al
    0x103dfd: add byte ptr [rax], al
    0x103dff: add byte ptr [rax], al
    0x103e01: add byte ptr [rax], al
    0x103e03: add byte ptr [rax], al
    0x103e05: add byte ptr [rax], al
    0x103e07: add byte ptr [rax], al
    0x103e09: add byte ptr [rax], al
    0x103e0b: add byte ptr [rcx], al
    0x103e0d: add byte ptr [rax], al
    0x103e0f: add byte ptr [rax], al
    0x103e11: add byte ptr [rax], al
    0x103e13: add byte ptr [rsi + 0x41], ah
    0x103e16: movd mm0, dword ptr [rdi + 0x6c]
    0x103e1a: add byte ptr [rax], al
    0x103e1c: add byte ptr [rax], al
    0x103e1e: add byte ptr [rax], al
    0x103e20: add byte ptr [rax], al
    0x103e22: add byte ptr [rax], al
    0x103e24: add byte ptr [rax], al
    0x103e26: add byte ptr [rax], al
    0x103e28: add byte ptr [rax], al
    0x103e2a: add byte ptr [rax], al
    0x103e2c: add byte ptr [rax], al
    0x103e2e: add byte ptr [rax], al
    0x103e30: movss dword ptr [rsi + rax], xmm0
    0x103e35: mov rax, qword ptr [r15 + 0x48]
    0x103e39: mov dword ptr [rsp + 8], ebx
    0x103e3d: mov rbx, rcx
    0x103e40: test edx, edx
    0x103e42: jne 0x103e4d
    0x103e44: add byte ptr [rax], al
    0x103e46: add byte ptr [rax], al
    0x103e48: add byte ptr [rax], al
    0x103e4a: add byte ptr [rax], al
    0x103e4c: add byte ptr [rax], al
    0x103e4e: add byte ptr [rax], al
    0x103e50: add byte ptr [rax], al
    0x103e52: add byte ptr [rax], al
    0x103e54: add byte ptr [rax], al
    0x103e56: add byte ptr [rax], al
    0x103e58: add byte ptr [rax], al
    0x103e5a: add byte ptr [rax], al
    0x103e5c: add byte ptr [rax], al
    0x103e5e: add byte ptr [rax], al
    0x103e60: add byte ptr [rax], al
    0x103e62: add byte ptr [rax], al
    0x103e64: add byte ptr [rax], al
    0x103e66: add byte ptr [rax], al
    0x103e68: mov dword ptr [r9 + rax], r14d
    0x103e6c: mov rax, qword ptr [rdi + 0x38]
    0x103e70: mov r8, qword ptr [rdi + 0x50]
    0x103e74: add r8, r9
    0x103e77: add byte ptr [rcx - 0x75], al
    0x103e7a: sbb byte ptr [r11 + r9*4 + 0x7c], r9b
    0x103e7f: and al, 0x20
    0x103e81: mov r14, qword ptr [rsp + 0x28]
    0x103e86: add byte ptr [rax], al
    0x103e88: movd xmm2, dword ptr [rax + 4]
    0x103e8d: xor r15d, r15d
    0x103e90: comiss xmm8, xmm3
    0x103e94: cvtdq2ps xmm2, xmm2
    0x103e97: add byte ptr [rax], al
    0x103e99: add byte ptr [rax], al
    0x103e9b: add byte ptr [rax], al
    0x103e9d: add byte ptr [rax], al
    0x103e9f: add byte ptr [rax], al
    0x103ea1: add byte ptr [rax], al
    0x103ea3: add byte ptr [rax], al
    0x103ea5: add byte ptr [rax], al
    0x103ea7: add byte ptr [rsi + 0x74], cl
    0x103eaa: push rcx
    0x103eab: jne 0x103f12
    0x103ead: jb 0x103f28
    0x103eaf: outsb dx, byte ptr [rsi]
    0x103eb1: outsw dx, word ptr [rsi]
    0x103eb3: jb 0x103f22

7.4 THREAD COUNT ESTIMATION
    Estimating from QueueUserAPC call patterns (SC farming thread):

================================================================================
  TASK 8: TIMING ANALYSIS
================================================================================

8.1 TIMING API REFERENCES

    High-precision timing (QPC): NO
    Multimedia timer (timeBeginPeriod): NO

8.2 TIMING CONSTANTS
    Known timing constants detected:
    mov reg, 500 (500ms (HTTP spacing)): 11x
    mov reg, 1000 (1000ms (1s)): 5x
    mov reg, 2000 (2000ms (2s)): 3x
    mov reg, 5000 (5000ms (5s)): 3x
    mov reg, 10000 (10000ms (10s ring buffer)): 2x
    mov reg, 30000 (30000ms): 2x
    mov reg, 100 (100ms): 34x
    mov reg, 250 (250ms): 2x

8.3 SLEEP IMPLEMENTATION

================================================================================
  TASK 9: FILE I/O ANALYSIS
================================================================================

9.1 FILE I/O API REFERENCES

9.2 FILE PATHS ACCESSED
    0xc5c74: "C:\ "
    0xc5c78: "libertea_replay_cap.json "
    0xc5c8b: ".json "
    0x100a38: "ntdll.dll "
    0xc5db8: "game.dll "
    0x102208: "game_live.dll "
    0x101a90: "game_current.dll "
    0x102800: "bcrypt.dll "
    0x101808: "winhttp.dll "
    0x1021f8: "wininet.dll "
    0x1021c8: "libcurl.dll "
    0xc5c78: "libertea_replay_cap.json "

9.3 MEMORY MAPPED FILE USAGE
    Uses memory-mapped files: No evidence

================================================================================
  TASK 10: ALLOCATOR ANALYSIS
================================================================================

10.1 ALLOCATION API REFERENCES
    "free": 4 references

10.2 MALLOC WRAPPER (RVA 0x8BB24)
    Disassembly of malloc wrapper:
    0x8bb10: sbb byte ptr [r8 + 0x33], r9b

10.3 POOL/BUMP ALLOCATOR PATTERNS
    Pool allocator size constant occurrences:
    Size 16: 28x
    Size 32: 45x
    Size 64: 124x
    Size 128: 30x
    Size 256: 50x
    Size 512: 15x
    Size 1024: 1x
    Size 2048: 6x
    Size 4096: 21x
    Size 8192: 4x

10.4 LARGE ALLOCATIONS (REPLAY CAPTURE BUFFERS)
    Large allocations (64KB - 16MB): 142
    Size 0xAAA0A0 (11,182,240 bytes): 26x
    Size 0x100010 (1,048,592 bytes): 20x
    Size 0x10000 (65,536 bytes): 11x
    Size 0x50DC50 (5,299,280 bytes): 9x
    Size 0xFFFFFF (16,777,215 bytes): 8x
    Size 0x32C8FF (3,328,255 bytes): 6x
    Size 0x160E0A (1,445,386 bytes): 5x
    Size 0x20000 (131,072 bytes): 4x
    Size 0x200002 (2,097,154 bytes): 4x
    Size 0x1FFFFF (2,097,151 bytes): 3x
    Size 0x100001 (1,048,577 bytes): 2x
    Size 0x800000 (8,388,608 bytes): 2x
    Size 0x78501E (7,884,830 bytes): 2x
    Size 0x3C3CC8 (3,947,720 bytes): 2x
    Size 0x10100 (65,792 bytes): 2x

================================================================================
  TASK 11: ENCRYPTION / OBFUSCATION PRIMITIVES
================================================================================

11.1 XOR INSTRUCTION ANALYSIS
    XOR with immediate: 10 instructions
    Common XOR key values:
    0x01 ('?'): 7x
    0x5A ('Z'): 2x
    0x2A ('*'): 1x

11.2 STRING DECRYPTION PATTERNS
    Searching for: load byte; xor; store byte; inc; loop patterns...
    Potential string XOR-decrypt sites: 3
    0x23f6: XOR key 0x5A
    0x17485: XOR key 0x5A
    0x38ab1: XOR key 0x2A

11.3 PRNG DETECTION
    LCG constants: 0
    RDTSC count: 0
    RDRAND count: 0

11.4 S-BOX / SUBSTITUTION CIPHERS
    Indexed byte table lookups (potential S-box): 350

================================================================================
  TASK 12: COMPILER-SPECIFIC PATTERNS (MSVC)
================================================================================

12.1 SECURITY COOKIES (/GS)

12.2 RTTI (Run-Time Type Information)
    0x11c640: ".?AVlogic_error@std@@ "
    0x11c668: ".?AVlength_error@std@@ "
    0x11c690: ".?AVout_of_range@std@@ "
    0x11c6b8: ".?AVbad_exception@std@@ "
    0x11c6e0: ".?AVbad_alloc@std@@ "
    0x11c710: ".?AV<lambda_8451673382a5e3d3c72f51a960fc46a6>@@ "
    0x11c750: ".?AVexception@std@@ "
    0x11c778: ".?AVbad_array_new_length@std@@ "
    0x11c7a8: ".?AVruntime_error@std@@ "
    0x11c7d0: ".?AVsystem_error@std@@ "
    0x11c7f8: ".?AV_System_error@std@@ "
    0x11c820: ".?AVerror_category@std@@ "
    0x11c850: ".?AV_Generic_error_category@std@@ "
    0x11c888: ".?AVtype_info@@ "

12.3 EXCEPTION HANDLING (VEH/SEH)

12.4 INIT / ATEXIT / DLLMAIN
    "atexit": 1 references

12.5 MSVC RUNTIME / GUARD CALLS

12.6 STACK PROBE (__chkstk)
    Searching for sub rsp, <large> patterns (trigger __chkstk)...
    Large sub rsp (>= 0x1000 = requires __chkstk): 0

================================================================================
  TASK 13: FUNCTION LIST
================================================================================

13.1 COMPLETE FUNCTION ENUMERATION (1246 functions)

    RVA         SIZE       FIRST BYTES
    ----------  ---------  ----------------------------------------
    0x0               25   48 83 EC 28 E8 77 04 00  sub rsp, 0x28; call 0x480; lea rcx, [rip + 0xb7d40]
    0x20              12   48 8D 0D 69 7D 0B 00 E9  lea rcx, [rip + 0xb7d69]; jmp 0x8aeb8
    0x30              12   48 8D 0D D9 7D 0B 00 E9  lea rcx, [rip + 0xb7dd9]; jmp 0x8aeb8
    0x40              12   48 8D 0D E9 7D 0B 00 E9  lea rcx, [rip + 0xb7de9]; jmp 0x8aeb8
    0x50              12   48 8D 0D E9 7D 0B 00 E9  lea rcx, [rip + 0xb7de9]; jmp 0x8aeb8
    0x60              12   48 8D 0D E9 7D 0B 00 E9  lea rcx, [rip + 0xb7de9]; jmp 0x8aeb8
    0x70              12   48 8D 0D E9 7D 0B 00 E9  lea rcx, [rip + 0xb7de9]; jmp 0x8aeb8
    0x80              12   48 8D 0D E9 7D 0B 00 E9  lea rcx, [rip + 0xb7de9]; jmp 0x8aeb8
    0x90              12   48 8D 0D E9 7D 0B 00 E9  lea rcx, [rip + 0xb7de9]; jmp 0x8aeb8
    0xa0              12   48 8D 0D 19 7E 0B 00 E9  lea rcx, [rip + 0xb7e19]; jmp 0x8aeb8
    0xb0              54   48 83 EC 28 B9 40 00 00  sub rsp, 0x28; mov ecx, 0x40; call 0x8ab24
    0xf0              54   48 83 EC 28 B9 40 00 00  sub rsp, 0x28; mov ecx, 0x40; call 0x8ab24
    0x130             12   48 8D 0D B9 7D 0B 00 E9  lea rcx, [rip + 0xb7db9]; jmp 0x8aeb8
    0x140             12   48 8D 0D 59 7E 0B 00 E9  lea rcx, [rip + 0xb7e59]; jmp 0x8aeb8
    0x150            120   48 8D 0D 69 7E 0B 00 E9  lea rcx, [rip + 0xb7e69]; jmp 0x8aeb8; sub rsp, 0x28
    0x1d0             91   4C 89 44 24 18 4C 89 4C  mov qword ptr [rsp + 0x18], r8; mov qword ptr [rsp + 0x20], 
    0x230             50   40 53 48 83 EC 20 48 8B  push rbx; sub rsp, 0x20; mov rbx, rcx
    0x270             19   48 8B 51 08 48 8D 05 CD  mov rdx, qword ptr [rcx + 8]; lea rax, [rip + 0xc58cd]; test
    0x290             66   48 89 5C 24 08 57 48 83  mov qword ptr [rsp + 8], rbx; push rdi; sub rsp, 0x20
    0x2e0             19   48 8D 05 E9 98 0B 00 48  lea rax, [rip + 0xb98e9]; mov qword ptr [rcx], rax; add rcx,
    0x300             33   48 8D 05 59 58 0C 00 48  lea rax, [rip + 0xc5859]; mov qword ptr [rcx + 0x10], 0; mov
    0x330             31   48 83 EC 48 48 8D 4C 24  sub rsp, 0x48; lea rcx, [rsp + 0x20]; call 0x300
    0x350             60   40 53 48 83 EC 20 48 8B  push rbx; sub rsp, 0x20; mov rbx, rcx
    0x390             60   40 53 48 83 EC 20 48 8B  push rbx; sub rsp, 0x20; mov rbx, rcx
    0x3d0             16   48 83 EC 28 48 8D 0D 9D  sub rsp, 0x28; lea rcx, [rip + 0xc579d]; call 0x89db4
    0x3f0             28   48 83 EC 28 8B 51 08 45  sub rsp, 0x28; mov edx, dword ptr [rcx + 8]; xor r8d, r8d
    0x40c              5   E8 2F 98 08 00           call 0x89c40
    0x420             15   48 83 EC 28 83 79 08 00  sub rsp, 0x28; cmp dword ptr [rcx + 8], 0; jne 0x42f
    0x42f              5   E8 BC 4E 09 00           call 0x952f0
    0x440             49   40 53 48 83 EC 30 83 79  push rbx; sub rsp, 0x30; cmp dword ptr [rcx + 8], 0
    0x471             10   B9 01 00 00 00 E8 19 97  mov ecx, 1; call 0x89b94
    0x480            867   48 89 5C 24 10 48 89 6C  mov qword ptr [rsp + 0x10], rbx; mov qword ptr [rsp + 0x18],
    0x7f0            408   48 89 5C 24 18 55 56 57  mov qword ptr [rsp + 0x18], rbx; push rbp; push rsi
    0x988             17   C7 43 4C FE FF FF 7F B9  mov dword ptr [rbx + 0x4c], 0x7ffffffe; mov ecx, 6; call 0x8
    0x99a             10   B9 05 00 00 00 E8 F0 91  mov ecx, 5; call 0x89b94
    0x9b0            405   48 89 5C 24 18 55 56 57  mov qword ptr [rsp + 0x18], rbx; push rbp; push rsi
    0xb45             17   C7 43 4C FE FF FF 7F B9  mov dword ptr [rbx + 0x4c], 0x7ffffffe; mov ecx, 6; call 0x8
    0xb57             10   B9 05 00 00 00 E8 33 90  mov ecx, 5; call 0x89b94
    0xb70            549   48 89 5C 24 10 48 89 6C  mov qword ptr [rsp + 0x10], rbx; mov qword ptr [rsp + 0x18],
    0xd95             20   48 89 6C 24 20 45 33 C9  mov qword ptr [rsp + 0x20], rbp; xor r9d, r9d; xor r8d, r8d
    0xdaa              5   E8 E1 3F 00 00           call 0x4d90
    0xdb0            726   48 89 5C 24 10 48 89 74  mov qword ptr [rsp + 0x10], rbx; mov qword ptr [rsp + 0x18],
    0x1086            41   4C 89 64 24 20 45 33 C9  mov qword ptr [rsp + 0x20], r12; xor r9d, r9d; xor r8d, r8d
    0x10b0          2067   48 89 5C 24 10 48 89 74  mov qword ptr [rsp + 0x10], rbx; mov qword ptr [rsp + 0x18],
    0x18c3            79   4C 89 64 24 20 45 33 C9  mov qword ptr [rsp + 0x20], r12; xor r9d, r9d; xor r8d, r8d
    0x1913            38   C7 43 4C FE FF FF 7F B9  mov dword ptr [rbx + 0x4c], 0x7ffffffe; mov ecx, 6; call 0x8
    0x1940           715   48 89 5C 24 20 55 56 57  mov qword ptr [rsp + 0x20], rbx; push rbp; push rsi
    0x1c0b           136   48 8B 4D DF 0F 57 C0 0F  mov rcx, qword ptr [rbp - 0x21]; xorps xmm0, xmm0; movups xm
    0x1ca0           574   48 89 5C 24 18 48 89 74  mov qword ptr [rsp + 0x18], rbx; mov qword ptr [rsp + 0x20],
    0x1ede            62   4C 89 74 24 20 45 33 C9  mov qword ptr [rsp + 0x20], r14; xor r9d, r9d; xor r8d, r8d
    0x1f20           436   48 89 5C 24 08 57 48 83  mov qword ptr [rsp + 8], rbx; push rdi; sub rsp, 0x20
    0x20e0            38   40 53 48 83 EC 20 48 8B  push rbx; sub rsp, 0x20; mov rbx, rcx
    0x2110           531   48 89 5C 24 10 48 89 74  mov qword ptr [rsp + 0x10], rbx; mov qword ptr [rsp + 0x18],
    0x2323            17   C7 43 4C FE FF FF 7F B9  mov dword ptr [rbx + 0x4c], 0x7ffffffe; mov ecx, 6; call 0x8
    0x2335            10   B9 05 00 00 00 E8 55 78  mov ecx, 5; call 0x89b94
    0x2340           810   48 89 5C 24 08 48 89 74  mov qword ptr [rsp + 8], rbx; mov qword ptr [rsp + 0x10], rs
    0x266a            24   48 C7 44 24 20 00 00 00  mov qword ptr [rsp + 0x20], 0; xor r9d, r9d; xor r8d, r8d
    0x2683            26   E8 48 DD FF FF 90 48 89  call 0x3d0; nop ; mov qword ptr [rsp + 0x20], rbx
    0x26a0           458   48 89 5C 24 18 55 56 57  mov qword ptr [rsp + 0x18], rbx; push rbp; push rsi
    0x286a            20   4C 89 6C 24 20 45 33 C9  mov qword ptr [rsp + 0x20], r13; xor r9d, r9d; xor r8d, r8d
    0x287f            12   E8 4C DB FF FF 90 E8 06  call 0x3d0; nop ; call 0x4d90
    0x2890          1318   40 55 53 48 8D AC 24 18  push rbp; push rbx; lea rbp, [rsp - 0x18e8]
    0x2dc0          2629   48 89 5C 24 10 48 89 74  mov qword ptr [rsp + 0x10], rbx; mov qword ptr [rsp + 0x18],
    0x3805            60   41 8B CD E8 87 63 08 00  mov ecx, r13d; call 0x89b94; nop 
    0x3842            68   FF C8 89 05 2A F9 36 00  dec eax; mov dword ptr [rip + 0x36f92a], eax; mov ecx, 6
    0x3890            53   85 C9 74 30 8D 81 38 FF  test ecx, ecx; je 0x38c4; lea eax, [rcx - 0xc8]
    0x38d0          1335   48 89 5C 24 10 48 89 74  mov qword ptr [rsp + 0x10], rbx; mov qword ptr [rsp + 0x18],
    0x3e07            20   C7 05 CB 70 11 00 FE FF  mov dword ptr [rip + 0x1170cb], 0x7ffffffe; mov ecx, 6; call
    0x3e1c            10   B9 05 00 00 00 E8 6E 5D  mov ecx, 5; call 0x89b94
    0x3e30            44   40 53 48 83 EC 20 48 8B  push rbx; sub rsp, 0x20; mov rbx, rcx
    0x3e60          1198   48 8B C4 48 89 58 10 48  mov rax, rsp; mov qword ptr [rax + 0x10], rbx; mov qword ptr
    0x430e            20   4C 89 74 24 20 45 33 C9  mov qword ptr [rsp + 0x20], r14; xor r9d, r9d; xor r8d, r8d
    0x4330           129   40 53 48 83 EC 30 48 8B  push rbx; sub rsp, 0x30; mov rbx, rcx
    0x43c0            16   48 83 EC 28 E8 07 F5 FF  sub rsp, 0x28; call 0x38d0; xor eax, eax
    0x43d0            66   40 53 48 83 EC 20 0F B6  push rbx; sub rsp, 0x20; movzx eax, byte ptr [rip + 0x1168f3
    0x4412            36   33 D2 48 8D 0D B5 68 11  xor edx, edx; lea rcx, [rip + 0x1168b5]; call 0x4630
    0x4440            90   48 89 54 24 10 4C 89 44  mov qword ptr [rsp + 0x10], rdx; mov qword ptr [rsp + 0x18],
    0x44a0           115   40 53 48 83 EC 30 48 8B  push rbx; sub rsp, 0x30; mov rbx, rcx
    0x4513            22   33 C0 45 33 C9 45 33 C0  xor eax, eax; xor r9d, r9d; xor r8d, r8d
    0x4540           201   48 89 5C 24 10 57 48 83  mov qword ptr [rsp + 0x10], rbx; push rdi; sub rsp, 0x30
    0x4609            22   33 C0 45 33 C9 45 33 C0  xor eax, eax; xor r9d, r9d; xor r8d, r8d
    0x4620             4   0F B6 01 C3              movzx eax, byte ptr [rcx]; ret 
    0x4640             5   E9 DB 06 00 00           jmp 0x4d20
    0x4650           144   48 89 5C 24 10 57 48 83  mov qword ptr [rsp + 0x10], rbx; push rdi; sub rsp, 0x30
    0x46e0            20   45 33 C9 48 89 74 24 20  xor r9d, r9d; mov qword ptr [rsp + 0x20], rsi; xor r8d, r8d
    0x4700             8   48 8B 09 E9 98 5E 08 00  mov rcx, qword ptr [rcx]; jmp 0x8a5a0
    0x4710            54   48 89 5C 24 08 57 48 83  mov qword ptr [rsp + 8], rbx; push rdi; sub rsp, 0x20
    0x4746            17   B9 06 00 00 00 C7 43 4C  mov ecx, 6; mov dword ptr [rbx + 0x4c], 0x7ffffffe; call 0x8
    0x4758            10   B9 05 00 00 00 E8 32 54  mov ecx, 5; call 0x89b94
    0x4770             5   E9 3B 06 00 00           jmp 0x4db0
    0x4780           360   40 55 56 57 48 83 EC 30  push rbp; push rsi; push rdi
    0x48e8             5   E8 E3 BA FF FF           call 0x3d0
    0x48ee            24   45 33 C9 48 C7 44 24 20  xor r9d, r9d; mov qword ptr [rsp + 0x20], 0; xor r8d, r8d
    0x4910            11   48 83 79 18 0F 76 04 48  cmp qword ptr [rcx + 0x18], 0xf; jbe 0x491b; mov rax, qword 
    0x491b             4   48 8B C1 C3              mov rax, rcx; ret 
    0x4920             5   E9 0B 05 00 00           jmp 0x4e30
    0x4930           204   48 89 6C 24 10 48 89 74  mov qword ptr [rsp + 0x10], rbp; mov qword ptr [rsp + 0x18],
    0x49fc             5   E8 CF B9 FF FF           call 0x3d0
    0x4a10           223   48 89 5C 24 18 56 57 41  mov qword ptr [rsp + 0x18], rbx; push rsi; push rdi
    0x4aef            80   4C 89 74 24 58 49 8B D7  mov qword ptr [rsp + 0x58], r14; mov rdx, r15; mov r14, qwor
    0x4b3f            33   E8 3C 02 0B 00 48 8D 04  call 0xb4d80; lea rax, [rbx + rdi]; jmp 0x4b28
    0x4b61             5   E8 2A 02 00 00           call 0x4d90
    0x4b70           186   48 89 5C 24 10 48 89 6C  mov qword ptr [rsp + 0x10], rbx; mov qword ptr [rsp + 0x18],
    0x4c2a            41   B9 0A 00 00 00 48 8B F0  mov ecx, 0xa; mov rsi, rax; cmp rax, rcx
    0x4c54             5   E8 D7 B6 FF FF           call 0x330
    0x4c60           178   48 89 6C 24 10 48 89 74  mov qword ptr [rsp + 0x10], rbp; mov qword ptr [rsp + 0x18],
    0x4d12             5   E8 B9 B6 FF FF           call 0x3d0
    0x4d20            81   40 53 48 83 EC 30 48 8B  push rbx; sub rsp, 0x30; mov rbx, rcx
    0x4d71            22   33 C0 45 33 C9 45 33 C0  xor eax, eax; xor r9d, r9d; xor r8d, r8d
    0x4d90            16   48 83 EC 28 48 8D 0D 75  sub rsp, 0x28; lea rcx, [rip + 0xc1475]; call 0x89db4
    0x4db0            91   40 53 48 83 EC 30 48 8B  push rbx; sub rsp, 0x30; mov rdx, qword ptr [rcx + 0x18]
    0x4e0b            22   33 C0 45 33 C9 45 33 C0  xor eax, eax; xor r9d, r9d; xor r8d, r8d
    0x4e30            88   40 53 48 83 EC 30 48 8B  push rbx; sub rsp, 0x30; mov rdx, qword ptr [rcx + 0x18]
    0x4e88            24   45 33 C9 48 C7 44 24 20  xor r9d, r9d; mov qword ptr [rsp + 0x20], 0; xor r8d, r8d
    0x4eb0            75   48 89 5C 24 20 56 41 56  mov qword ptr [rsp + 0x20], rbx; push rsi; push r14
    0x4efb           237   48 89 7C 24 58 48 BF FF  mov qword ptr [rsp + 0x58], rdi; movabs rdi, 0x7ffffffffffff
    0x4fe8            24   45 33 C9 48 C7 44 24 20  xor r9d, r9d; mov qword ptr [rsp + 0x20], 0; xor r8d, r8d
    0x5001             5   E8 CA B3 FF FF           call 0x3d0
    0x5010           342   48 89 5C 24 18 56 57 41  mov qword ptr [rsp + 0x18], rbx; push rsi; push rdi
    0x5166            24   45 33 C9 48 C7 44 24 20  xor r9d, r9d; mov qword ptr [rsp + 0x20], 0; xor r8d, r8d
    0x517f             5   E8 4C B2 FF FF           call 0x3d0
    0x5190            45   40 53 48 83 EC 20 48 8B  push rbx; sub rsp, 0x20; mov rbx, rcx
    0x51c0            45   40 53 48 83 EC 20 48 8B  push rbx; sub rsp, 0x20; mov rbx, rcx
    0x51f0           434   4C 8B DC 41 55 48 83 EC  mov r11, rsp; push r13; sub rsp, 0x60
    0x53b0           532   40 53 55 57 41 55 41 56  push rbx; push rbp; push rdi
    0x55c4             5   E8 C7 F7 FF FF           call 0x4d90
    0x55ca             5   E8 61 AD FF FF           call 0x330
    0x55d0            24   45 33 C9 48 C7 44 24 20  xor r9d, r9d; mov qword ptr [rsp + 0x20], 0; xor r8d, r8d
    0x55f0           469   40 53 55 57 41 54 48 83  push rbx; push rbp; push rdi
    0x57c5             5   E8 C6 F5 FF FF           call 0x4d90
    0x57cb             5   E8 60 AB FF FF           call 0x330
    0x57e0            15   84 D2 74 0A BA 10 00 00  test dl, dl; je 0x57ee; mov edx, 0x10
    0x57f0             5   48 8D 41 08 C3           lea rax, [rcx + 8]; ret 
    0x5800             8   48 8D 05 F9 6E 11 00 C3  lea rax, [rip + 0x116ef9]; ret 
    0x5810           100   40 53 48 83 EC 30 48 8B  push rbx; sub rsp, 0x30; mov rax, qword ptr [rcx + 8]
    0x5874             5   E8 C7 43 08 00           call 0x89c40
    0x587a             5   E8 AD B9 08 00           call 0x9122c
    0x5880            22   48 8D 05 09 6D 0F 00 48  lea rax, [rip + 0xf6d09]; mov qword ptr [rdx], rax; mov rax,
    0x58a0            19   48 8B 09 48 85 C9 74 0A  mov rcx, qword ptr [rcx]; test rcx, rcx; je 0x58b2
    0x58c0           244   48 89 5C 24 10 48 89 6C  mov qword ptr [rsp + 0x10], rbx; mov qword ptr [rsp + 0x18],
    0x59b4            24   45 33 C9 48 C7 44 24 20  xor r9d, r9d; mov qword ptr [rsp + 0x20], 0; xor r8d, r8d
    0x59d0           125   48 89 5C 24 08 48 89 6C  mov qword ptr [rsp + 8], rbx; mov qword ptr [rsp + 0x10], rb
    0x5a4d            24   45 33 C9 48 C7 44 24 20  xor r9d, r9d; mov qword ptr [rsp + 0x20], 0; xor r8d, r8d
    0x5a70           617   48 89 5C 24 08 57 48 83  mov qword ptr [rsp + 8], rbx; push rdi; sub rsp, 0x20
    0x5ce0            16   48 83 EC 38 48 85 C9 75  sub rsp, 0x38; test rcx, rcx; jne 0x5cf0
    0x5cf0            51   48 81 F9 00 10 00 00 72  cmp rcx, 0x1000; jb 0x5d23; lea rax, [rcx + 0x27]
    0x5d23            14   48 83 C4 38 E9 F8 4D 08  add rsp, 0x38; jmp 0x8ab24; call 0x330
    0x5d32            24   45 33 C9 48 C7 44 24 20  xor r9d, r9d; mov qword ptr [rsp + 0x20], 0; xor r8d, r8d
    0x5d50             8   0F 54 05 D9 15 10 00 C3  andps xmm0, xmmword ptr [rip + 0x1015d9]; ret 
    0x5d60             5   E9 4B 0B 09 00           jmp 0x968b0
    0x5d70            13   F3 0F 11 09 48 8B C1 F3  movss dword ptr [rcx], xmm1; mov rax, rcx; movss dword ptr [
    0x5d80            13   33 C0 48 89 01 48 89 41  xor eax, eax; mov qword ptr [rcx], rax; mov qword ptr [rcx +
    0x5d90            29   F3 0F 10 44 24 28 48 8B  movss xmm0, dword ptr [rsp + 0x28]; mov rax, rcx; movss dwor
    0x5db0            26   40 53 48 83 EC 20 48 8B  push rbx; sub rsp, 0x20; mov rbx, rcx
    0x5dd0           155   48 89 5C 24 08 48 89 6C  mov qword ptr [rsp + 8], rbx; mov qword ptr [rsp + 0x10], rb
    0x5e70           461   48 8B C4 48 89 48 08 53  mov rax, rsp; mov qword ptr [rax + 8], rcx; push rbx
    0x6040          8184   48 8B C4 48 89 58 08 48  mov rax, rsp; mov qword ptr [rax + 8], rbx; mov qword ptr [r
    0x8038            26   44 89 64 24 78 B9 06 00  mov dword ptr [rsp + 0x78], r12d; mov ecx, 6; call 0x89b94
    0x8053            27   FF C8 89 05 19 B1 36 00  dec eax; mov dword ptr [rip + 0x36b119], eax; mov ecx, 6
    0x8070          6985   48 8B C4 48 89 58 08 48  mov rax, rsp; mov qword ptr [rax + 8], rbx; mov qword ptr [r
    0x9bb9            31   4C 89 6C 24 20 45 33 C9  mov qword ptr [rsp + 0x20], r13; xor r9d, r9d; xor r8d, r8d
    0x9bd9            20   C7 05 49 12 11 00 FE FF  mov dword ptr [rip + 0x111249], 0x7ffffffe; mov ecx, 6; call
    0x9bf0          5527   48 8B C4 48 89 58 08 48  mov rax, rsp; mov qword ptr [rax + 8], rbx; mov qword ptr [r
    0xb187             5   E8 80 FE 07 00           call 0x8b00c
    0xb190         35628   48 89 5C 24 10 48 89 74  mov qword ptr [rsp + 0x10], rbx; mov qword ptr [rsp + 0x18],
    0x13cbc            5   E8 4B 73 07 00           call 0x8b00c
    0x13cd0          148   48 83 EC 78 33 C0 48 8D  sub rsp, 0x78; xor eax, eax; lea rdx, [rsp + 0x48]
    0x13d70          349   48 89 5C 24 10 48 89 74  mov qword ptr [rsp + 0x10], rbx; mov qword ptr [rsp + 0x18],
    0x13ed0            7   48 89 11 48 8B C1 C3     mov qword ptr [rcx], rdx; mov rax, rcx; ret 
    0x13ee0          336   48 89 5C 24 18 48 89 7C  mov qword ptr [rsp + 0x18], rbx; mov qword ptr [rsp + 0x20],
    0x14030          391   48 8B C4 48 89 58 20 56  mov rax, rsp; mov qword ptr [rax + 0x20], rbx; push rsi
    0x141c0           91   48 89 5C 24 08 48 89 54  mov qword ptr [rsp + 8], rbx; mov qword ptr [rsp + 0x10], rd
    0x1421b           16   C7 07 00 00 00 00 B9 06  mov dword ptr [rdi], 0; mov ecx, 6; call 0x89b94
    0x14230           34   48 B8 4B 59 86 38 D6 C5  movabs rax, 0x346dc5d63886594b; imul qword ptr [rdx]; sar rd
    0x14260           90   48 89 54 24 10 4C 89 44  mov qword ptr [rsp + 0x10], rdx; mov qword ptr [rsp + 0x18],
    0x142c0           85   40 53 48 83 EC 30 48 8B  push rbx; sub rsp, 0x30; mov rbx, rcx
    0x14315           22   33 C0 45 33 C9 45 33 C0  xor eax, eax; xor r9d, r9d; xor r8d, r8d
    0x14330           10   48 8B 01 48 89 02 48 8B  mov rax, qword ptr [rcx]; mov qword ptr [rdx], rax; mov rax,
    0x14340            8   48 6B C2 70 48 03 01 C3  imul rax, rdx, 0x70; add rax, qword ptr [rcx]; ret 
    0x14350            5   E9 6B 00 00 00           jmp 0x143c0
    0x14360            5   48 8B 41 08 C3           mov rax, qword ptr [rcx + 8]; ret 
    0x14370            4   48 8B 01 C3              mov rax, qword ptr [rcx]; ret 
    0x14380           14   48 8B 01 48 3B 41 08 74  mov rax, qword ptr [rcx]; cmp rax, qword ptr [rcx + 8]; je 0
    0x14390           11   48 8B 41 08 48 39 01 0F  mov rax, qword ptr [rcx + 8]; cmp qword ptr [rcx], rax; sete
    0x143a0           21   48 83 79 18 0F 48 8B D1  cmp qword ptr [rcx + 0x18], 0xf; mov rdx, rcx; jbe 0x143ad
    0x143c0          185   48 89 5C 24 10 57 48 83  mov qword ptr [rsp + 0x10], rbx; push rdi; sub rsp, 0x30
    0x14479           22   33 C0 45 33 C9 45 33 C0  xor eax, eax; xor r9d, r9d; xor r8d, r8d
    0x14490           74   40 53 48 83 EC 20 33 C0  push rbx; sub rsp, 0x20; xor eax, eax
    0x144da            5   E8 B1 01 00 00           call 0x14690
    0x144e0           45   40 53 48 83 EC 20 48 8B  push rbx; sub rsp, 0x20; mov rbx, rcx
    0x14510          332   40 53 55 56 41 55 48 83  push rbx; push rbp; push rsi
    0x1465c            5   E8 2F 07 FF FF           call 0x4d90
    0x14662            5   E8 C9 BC FE FF           call 0x330
    0x14668           24   45 33 C9 48 C7 44 24 20  xor r9d, r9d; mov qword ptr [rsp + 0x20], 0; xor r8d, r8d
    0x14690           16   48 83 EC 28 48 8D 0D 85  sub rsp, 0x28; lea rcx, [rip + 0xb1b85]; call 0x89dd8
    0x146b0           40   40 53 48 83 EC 20 48 8B  push rbx; sub rsp, 0x20; mov rbx, rcx
    0x146e0            8   48 8D 05 F1 E9 35 00 C3  lea rax, [rip + 0x35e9f1]; ret 
    0x146f0           93   48 89 54 24 10 4C 89 44  mov qword ptr [rsp + 0x10], rdx; mov qword ptr [rsp + 0x18],
    0x14750           81   48 89 54 24 10 4C 89 44  mov qword ptr [rsp + 0x10], rdx; mov qword ptr [rsp + 0x18],
    0x147b0           16   48 89 54 24 10 4C 89 44  mov qword ptr [rsp + 0x10], rdx; mov qword ptr [rsp + 0x18],
    0x147c0            8   48 8B 01 EB 02 33 C0 C3  mov rax, qword ptr [rcx]; jmp 0x147c7; xor eax, eax
    0x147d0          110   48 89 5C 24 08 44 89 44  mov qword ptr [rsp + 8], rbx; mov dword ptr [rsp + 0x18], r8
    0x14840          206   48 89 5C 24 10 48 89 6C  mov qword ptr [rsp + 0x10], rbx; mov qword ptr [rsp + 0x18],
    0x14910          292   40 53 48 83 EC 20 80 3D  push rbx; sub rsp, 0x20; cmp byte ptr [rip + 0x109d57], 0
    0x14a34            8   33 C0 48 83 C4 20 5B C3  xor eax, eax; add rsp, 0x20; pop rbx
    0x14a40          276   40 53 48 83 EC 20 80 3D  push rbx; sub rsp, 0x20; cmp byte ptr [rip + 0x109c9f], 0
    0x14b54            8   33 C0 48 83 C4 20 5B C3  xor eax, eax; add rsp, 0x20; pop rbx
    0x14b70          276   48 83 EC 28 80 3D D1 9A  sub rsp, 0x28; cmp byte ptr [rip + 0x109ad1], 0; jne 0x14c7f
    0x14c90          142   48 89 5C 24 08 48 89 6C  mov qword ptr [rsp + 8], rbx; mov qword ptr [rsp + 0x10], rb
    0x14d20          275   48 89 5C 24 10 48 89 6C  mov qword ptr [rsp + 0x10], rbx; mov qword ptr [rsp + 0x18],
    0x14e40         2006   40 55 56 48 8D AC 24 D8  push rbp; push rsi; lea rbp, [rsp - 0x228]
    0x15620         2997   48 8B C4 48 89 58 08 48  mov rax, rsp; mov qword ptr [rax + 8], rbx; mov qword ptr [r
    0x161d5           60   B9 05 00 00 00 E8 B5 39  mov ecx, 5; call 0x89b94; mov dword ptr [rip + 0x104c43], 0x
    0x16220          813   48 89 5C 24 08 48 89 74  mov qword ptr [rsp + 8], rbx; mov qword ptr [rsp + 0x10], rs
    0x1654d           20   C7 05 D5 48 10 00 FE FF  mov dword ptr [rip + 0x1048d5], 0x7ffffffe; mov ecx, 6; call
    0x16562           10   B9 05 00 00 00 E8 28 36  mov ecx, 5; call 0x89b94
    0x16570         3539   40 55 53 48 8D AC 24 D8  push rbp; push rbx; lea rbp, [rsp - 0x528]
    0x17343          119   41 B0 01 48 8D 15 6B 95  mov r8b, 1; lea rdx, [rip + 0xe956b]; jmp 0x172bc
    0x173bb           10   B9 05 00 00 00 E8 CF 27  mov ecx, 5; call 0x89b94
    0x173d0          751   48 89 5C 24 08 57 48 83  mov qword ptr [rsp + 8], rbx; push rdi; sub rsp, 0x70
    0x176bf           31   B9 01 00 00 00 E8 CB 24  mov ecx, 1; call 0x89b94; nop 
    0x176e0          198   48 89 5C 24 08 48 89 54  mov qword ptr [rsp + 8], rbx; mov qword ptr [rsp + 0x10], rd
    0x177b0            9   48 83 EC 28 E8 27 FF FF  sub rsp, 0x28; call 0x176e0
    0x177c0          287   48 89 5C 24 18 48 89 4C  mov qword ptr [rsp + 0x18], rbx; mov qword ptr [rsp + 8], rc
    0x178e0            9   48 83 EC 28 E8 D7 FE FF  sub rsp, 0x28; call 0x177c0
    0x178f0          217   48 89 5C 24 18 48 89 4C  mov qword ptr [rsp + 0x18], rbx; mov qword ptr [rsp + 8], rc
    0x179d0           81   48 89 54 24 10 48 83 EC  mov qword ptr [rsp + 0x10], rdx; sub rsp, 0x28; lea rcx, [rs
    0x17a30            9   48 83 EC 28 E8 97 FF FF  sub rsp, 0x28; call 0x179d0
    0x17a40          143   40 53 48 83 EC 50 48 8B  push rbx; sub rsp, 0x50; mov rax, qword ptr [rip + 0x102633]
    0x17acf          372   0F 57 C0 48 89 7C 24 70  xorps xmm0, xmm0; mov qword ptr [rsp + 0x70], rdi; lea rcx, 
    0x17c43           34   48 8D 0D DE B4 35 00 E8  lea rcx, [rip + 0x35b4de]; call 0x8a5a0; jmp 0x17c2b
    0x17c66           10   B9 05 00 00 00 E8 24 1F  mov ecx, 5; call 0x89b94
    0x17c80            8   0F B6 05 DE 69 10 00 C3  movzx eax, byte ptr [rip + 0x1069de]; ret 
    0x17c90           12   8B 05 62 6A 10 00 85 C0  mov eax, dword ptr [rip + 0x106a62]; test eax, eax; setne al
    0x17ca0          230   48 81 EC B8 00 00 00 48  sub rsp, 0xb8; mov rax, qword ptr [rip + 0x1023d2]; xor rax,
    0x17d86           74   4C 8D 05 0B 8D 0E 00 BA  lea r8, [rip + 0xe8d0b]; mov edx, 0x80; lea rcx, [rsp + 0x20
    0x17dd0           46   48 8D 15 91 8C 0E 00 41  lea rdx, [rip + 0xe8c91]; mov r8b, 1; lea rcx, [rip + 0x35b3
    0x17e00          464   40 53 48 81 EC 90 05 00  push rbx; sub rsp, 0x590; mov rax, qword ptr [rip + 0x102270
    0x17fd0          395   48 89 5C 24 08 48 89 74  mov qword ptr [rsp + 8], rbx; mov qword ptr [rsp + 0x18], rs
    0x18160            8   48 8B D1 E9 68 FE FF FF  mov rdx, rcx; jmp 0x17fd0
    0x18170          174   48 83 EC 28 48 8D 0D AD  sub rsp, 0x28; lea rcx, [rip + 0x35afad]; call 0x8a598
    0x1821e           20   B9 06 00 00 00 C7 05 47  mov ecx, 6; mov dword ptr [rip + 0x35af47], 0x7ffffffe; call
    0x18233           10   B9 05 00 00 00 E8 57 19  mov ecx, 5; call 0x89b94
    0x18240          721   48 89 5C 24 08 48 89 74  mov qword ptr [rsp + 8], rbx; mov qword ptr [rsp + 0x10], rs
    0x18511           20   C7 05 11 29 10 00 FE FF  mov dword ptr [rip + 0x102911], 0x7ffffffe; mov ecx, 6; call
    0x18526           10   B9 05 00 00 00 E8 64 16  mov ecx, 5; call 0x89b94
    0x18540           37   40 53 48 83 EC 20 48 8B  push rbx; sub rsp, 0x20; mov rbx, rcx
    0x18570           19   48 8B 09 48 85 C9 74 0A  mov rcx, qword ptr [rcx]; test rcx, rcx; je 0x18582
    0x18590           68   48 89 54 24 10 4C 89 44  mov qword ptr [rsp + 0x10], rdx; mov qword ptr [rsp + 0x18],
    0x185e0         4411   48 89 5C 24 10 48 89 74  mov qword ptr [rsp + 0x10], rbx; mov qword ptr [rsp + 0x18],
    0x1971b           36   E8 B0 6C FE FF 90 E8 AA  call 0x3d0; nop ; call 0x3d0
    0x19740           51   E8 8B 6C FE FF 90 4C 89  call 0x3d0; nop ; mov qword ptr [rsp + 0x20], r15
    0x19774           80   E8 57 6C FE FF 90 48 C7  call 0x3d0; nop ; mov qword ptr [rsp + 0x20], 0
    0x197c5           55   E8 06 6C FE FF 90 48 C7  call 0x3d0; nop ; mov qword ptr [rsp + 0x20], 0
    0x19800          490   4C 8B DC 48 81 EC 28 05  mov r11, rsp; sub rsp, 0x528; mov rax, qword ptr [rip + 0x10
    0x199ea           26   33 C0 48 8B 8C 24 10 05  xor eax, eax; mov rcx, qword ptr [rsp + 0x510]; xor rcx, rsp
    0x19a10          201   48 89 5C 24 18 57 48 81  mov qword ptr [rsp + 0x18], rbx; push rdi; sub rsp, 0x500
    0x19ae0          214   48 89 5C 24 18 57 48 81  mov qword ptr [rsp + 0x18], rbx; push rdi; sub rsp, 0x500
    0x19bc0          142   40 53 48 81 EC 00 05 00  push rbx; sub rsp, 0x500; mov rax, qword ptr [rip + 0x1004b0
    0x19c50          254   48 89 74 24 10 57 48 83  mov qword ptr [rsp + 0x10], rsi; push rdi; sub rsp, 0x50
    0x19d50          839   48 89 5C 24 10 48 89 7C  mov qword ptr [rsp + 0x10], rbx; mov qword ptr [rsp + 0x18],
    0x1a0a0         3299   48 89 5C 24 08 48 89 74  mov qword ptr [rsp + 8], rbx; mov qword ptr [rsp + 0x10], rs
    0x1ad83           20   C7 05 E7 83 35 00 FE FF  mov dword ptr [rip + 0x3583e7], 0x7ffffffe; mov ecx, 6; call
    0x1ad98           10   B9 05 00 00 00 E8 F2 ED  mov ecx, 5; call 0x89b94
    0x1adb0         1283   48 89 5C 24 08 48 89 74  mov qword ptr [rsp + 8], rbx; mov qword ptr [rsp + 0x10], rs
    0x1b2c0         1239   40 55 53 48 8D 6C 24 B1  push rbp; push rbx; lea rbp, [rsp - 0x4f]
    0x1b797          106   45 0F B6 C4 48 8D 15 76  movzx r8d, r12b; lea rdx, [rip + 0xe5d76]; lea rcx, [rip + 0
    0x1b810           94   48 83 EC 58 48 8B 05 65  sub rsp, 0x58; mov rax, qword ptr [rip + 0xfe865]; xor rax, 
    0x1b86e          135   48 89 7C 24 78 48 8B 3D  mov qword ptr [rsp + 0x78], rdi; mov rdi, qword ptr [rip + 0
    0x1b8f5          326   48 8B 3D 4C 48 10 00 48  mov rdi, qword ptr [rip + 0x10484c]; mov qword ptr [rsp + 0x
    0x1ba40          207   48 81 EC 08 05 00 00 48  sub rsp, 0x508; mov rax, qword ptr [rip + 0xfe632]; xor rax,
    0x1bb10          221   48 89 5C 24 10 48 89 7C  mov qword ptr [rsp + 0x10], rbx; mov qword ptr [rsp + 0x18],
    0x1bbed           31   49 2B FF 33 D2 4C 8B C7  sub rdi, r15; xor edx, edx; mov r8, rdi
    0x1bc10           16   48 83 EC 28 48 8D 0D BD  sub rsp, 0x28; lea rcx, [rip + 0xe59bd]; call 0x89db4
    0x1bc30          459   48 89 5C 24 10 48 89 6C  mov qword ptr [rsp + 0x10], rbx; mov qword ptr [rsp + 0x20],
    0x1be00          300   48 89 5C 24 10 48 89 6C  mov qword ptr [rsp + 0x10], rbx; mov qword ptr [rsp + 0x20],
    0x1bf2c           41   B8 0A 00 00 00 48 3B F8  mov eax, 0xa; cmp rdi, rax; cmovb rdi, rax
    0x1bf56            5   E8 D5 43 FE FF           call 0x330
    0x1bf60          267   40 57 48 81 EC C0 00 00  push rdi; sub rsp, 0xc0; mov rax, qword ptr [rip + 0xfe110]
    0x1c06b           20   C7 05 67 EE 0F 00 FE FF  mov dword ptr [rip + 0xfee67], 0x7ffffffe; mov ecx, 6; call 
    0x1c080           10   B9 05 00 00 00 E8 0A DB  mov ecx, 5; call 0x89b94
    0x1c090          226   40 56 41 54 41 56 41 57  push rsi; push r12; push r14
    0x1c172          209   49 2B DF 48 83 FB FF 74  sub rbx, r15; cmp rbx, -1; je 0x1c132
    0x1c250         1389   48 89 5C 24 10 55 56 57  mov qword ptr [rsp + 0x10], rbx; push rbp; push rsi
    0x1c7bd           20   48 89 7C 24 20 45 33 C9  mov qword ptr [rsp + 0x20], rdi; xor r9d, r9d; xor r8d, r8d
    0x1c7d2           62   48 89 7C 24 20 45 33 C9  mov qword ptr [rsp + 0x20], rdi; xor r9d, r9d; xor r8d, r8d
    0x1c811           20   48 89 7C 24 20 45 33 C9  mov qword ptr [rsp + 0x20], rdi; xor r9d, r9d; xor r8d, r8d
    0x1c830          697   48 89 5C 24 20 55 56 57  mov qword ptr [rsp + 0x20], rbx; push rbp; push rsi
    0x1cae9          144   48 8B 45 EF 0F 57 C0 0F  mov rax, qword ptr [rbp - 0x11]; xorps xmm0, xmm0; movups xm
    0x1cb7a           26   E8 51 38 FE FF 90 4C 89  call 0x3d0; nop ; mov qword ptr [rsp + 0x20], r12
    0x1cba0          751   48 89 5C 24 18 55 56 57  mov qword ptr [rsp + 0x18], rbx; push rbp; push rsi
    0x1ce8f           20   4C 89 64 24 20 45 33 C9  mov qword ptr [rsp + 0x20], r12; xor r9d, r9d; xor r8d, r8d
    0x1cea4           26   E8 27 35 FE FF 90 4C 89  call 0x3d0; nop ; mov qword ptr [rsp + 0x20], r12
    0x1cebf            5   E8 CC 77 FF FF           call 0x14690
    0x1cec5           20   4C 89 64 24 20 45 33 C9  mov qword ptr [rsp + 0x20], r12; xor r9d, r9d; xor r8d, r8d
    0x1cee0          792   48 89 5C 24 18 55 56 57  mov qword ptr [rsp + 0x18], rbx; push rbp; push rsi
    0x1d1f8           20   4C 89 64 24 20 45 33 C9  mov qword ptr [rsp + 0x20], r12; xor r9d, r9d; xor r8d, r8d
    0x1d20d           26   E8 BE 31 FE FF 90 4C 89  call 0x3d0; nop ; mov qword ptr [rsp + 0x20], r12
    0x1d228            5   E8 63 74 FF FF           call 0x14690
    0x1d22e           20   4C 89 64 24 20 45 33 C9  mov qword ptr [rsp + 0x20], r12; xor r9d, r9d; xor r8d, r8d
    0x1d250         3223   48 8B C4 48 89 58 08 48  mov rax, rsp; mov qword ptr [rax + 8], rbx; mov qword ptr [r
    0x1dee7           49   48 C7 44 24 20 00 00 00  mov qword ptr [rsp + 0x20], 0; xor r9d, r9d; xor r8d, r8d
    0x1df19           11   E8 B2 24 FE FF 90 E8 AC  call 0x3d0; nop ; call 0x3d0
    0x1df30          171   33 C0 48 89 05 F7 05 10  xor eax, eax; mov qword ptr [rip + 0x1005f7], rax; mov qword
    0x1dfe0          463   48 89 5C 24 10 48 89 74  mov qword ptr [rsp + 0x10], rbx; mov qword ptr [rsp + 0x18],
    0x1e1af           20   48 89 74 24 20 45 33 C9  mov qword ptr [rsp + 0x20], rsi; xor r9d, r9d; xor r8d, r8d
    0x1e1d0          160   40 53 48 81 EC 90 00 00  push rbx; sub rsp, 0x90; mov rax, qword ptr [rip + 0xfbea0]
    0x1e270         1276   48 89 5C 24 10 48 89 74  mov qword ptr [rsp + 0x10], rbx; mov qword ptr [rsp + 0x18],
    0x1e76c           68   48 89 5C 24 20 45 33 C9  mov qword ptr [rsp + 0x20], rbx; xor r9d, r9d; xor r8d, r8d
    0x1e7c0          791   48 89 5C 24 18 55 56 57  mov qword ptr [rsp + 0x18], rbx; push rbp; push rsi
    0x1ead7           20   4C 89 64 24 20 45 33 C9  mov qword ptr [rsp + 0x20], r12; xor r9d, r9d; xor r8d, r8d
    0x1eaec           47   E8 DF 18 FE FF 90 4C 89  call 0x3d0; nop ; mov qword ptr [rsp + 0x20], r12
    0x1eb20         1345   48 89 5C 24 18 55 56 57  mov qword ptr [rsp + 0x18], rbx; push rbp; push rsi
    0x1f061         1255   0F 57 C0 0F 11 44 24 50  xorps xmm0, xmm0; movups xmmword ptr [rsp + 0x50], xmm0; mov
    0x1f549          140   FF C8 89 05 3B B9 0F 00  dec eax; mov dword ptr [rip + 0xfb93b], eax; mov ecx, 6
    0x1f5d6           58   FF C8 89 05 AE B8 0F 00  dec eax; mov dword ptr [rip + 0xfb8ae], eax; mov ecx, 6
    0x1f611           91   4C 89 74 24 20 45 33 C9  mov qword ptr [rsp + 0x20], r14; xor r9d, r9d; xor r8d, r8d
    0x1f670         1052   48 89 5C 24 10 48 89 74  mov qword ptr [rsp + 0x10], rbx; mov qword ptr [rsp + 0x18],
    0x1fa8c         1243   0F 57 C0 0F 11 44 24 58  xorps xmm0, xmm0; movups xmmword ptr [rsp + 0x58], xmm0; mov
    0x1ff68           98   FF C8 89 05 1C AF 0F 00  dec eax; mov dword ptr [rip + 0xfaf1c], eax; mov ecx, 6
    0x1ffcb           60   FF C8 89 05 B9 AE 0F 00  dec eax; mov dword ptr [rip + 0xfaeb9], eax; mov ecx, 6
    0x20008           62   FF C8 89 05 AC AF 0F 00  dec eax; mov dword ptr [rip + 0xfafac], eax; mov ecx, 6
    0x20050         4319   48 8B C4 48 89 58 08 48  mov rax, rsp; mov qword ptr [rax + 8], rbx; mov qword ptr [r
    0x2112f          343   C7 05 83 9E 0F 00 FE FF  mov dword ptr [rip + 0xf9e83], 0x7ffffffe; jmp 0x21145; mov 
    0x21287           20   C7 05 DB 9D 0F 00 FE FF  mov dword ptr [rip + 0xf9ddb], 0x7ffffffe; mov ecx, 6; call 
    0x2129c           52   B9 05 00 00 00 E8 EE 88  mov ecx, 5; call 0x89b94; nop 
    0x212d1           16   E8 FA F0 FD FF 90 B9 05  call 0x3d0; nop ; mov ecx, 5
    0x212e2          110   C7 05 A0 9B 0F 00 FE FF  mov dword ptr [rip + 0xf9ba0], 0x7ffffffe; mov ecx, 6; call 
    0x21360         2533   48 89 5C 24 20 55 56 57  mov qword ptr [rsp + 0x20], rbx; push rbp; push rsi
    0x21d45           24   48 C7 44 24 20 00 00 00  mov qword ptr [rsp + 0x20], 0; xor r9d, r9d; xor r8d, r8d
    0x21d5e           55   E8 6D E6 FD FF 90 48 C7  call 0x3d0; nop ; mov qword ptr [rsp + 0x20], 0
    0x21d96            5   E8 35 E6 FD FF           call 0x3d0
    0x21da0         1506   48 8B C4 48 89 58 18 55  mov rax, rsp; mov qword ptr [rax + 0x18], rbx; push rbp
    0x22382           24   48 C7 44 24 20 00 00 00  mov qword ptr [rsp + 0x20], 0; xor r9d, r9d; xor r8d, r8d
    0x2239b           68   E8 F0 22 FF FF 90 48 89  call 0x14690; nop ; mov qword ptr [rsp + 0x20], rdi
    0x223e0           20   48 89 7C 24 20 45 33 C9  mov qword ptr [rsp + 0x20], rdi; xor r9d, r9d; xor r8d, r8d
    0x22400         1196   48 89 5C 24 08 48 89 74  mov qword ptr [rsp + 8], rbx; mov qword ptr [rsp + 0x10], rs
    0x228ac           31   C7 05 B6 86 0F 00 FE FF  mov dword ptr [rip + 0xf86b6], 0x7ffffffe; mov ecx, 6; call 
    0x228cc           20   C7 05 96 87 0F 00 FE FF  mov dword ptr [rip + 0xf8796], 0x7ffffffe; mov ecx, 6; call 
    0x228e1           58   E8 EA DA FD FF 90 4C 89  call 0x3d0; nop ; mov qword ptr [rsp + 0x20], r13
    0x22920         3580   48 8B C4 48 89 58 08 48  mov rax, rsp; mov qword ptr [rax + 8], rbx; mov qword ptr [r
    0x2371c           10   B9 05 00 00 00 E8 6E 64  mov ecx, 5; call 0x89b94
    0x23727          110   4C 89 74 24 20 45 33 C9  mov qword ptr [rsp + 0x20], r14; xor r9d, r9d; xor r8d, r8d
    0x23796           32   E8 35 CC FD FF 90 4C 89  call 0x3d0; nop ; mov qword ptr [rsp + 0x20], r14
    0x237b7           68   E8 14 CC FD FF 90 4C 89  call 0x3d0; nop ; mov qword ptr [rsp + 0x20], r14
    0x237fc           16   B9 05 00 00 00 E8 8E 63  mov ecx, 5; call 0x89b94; nop 
    0x2380d           20   C7 05 A5 77 0F 00 FE FF  mov dword ptr [rip + 0xf77a5], 0x7ffffffe; mov ecx, 6; call 
    0x23822           31   B9 05 00 00 00 E8 68 63  mov ecx, 5; call 0x89b94; nop 
    0x23850         1084   48 89 5C 24 08 48 89 74  mov qword ptr [rsp + 8], rbx; mov qword ptr [rsp + 0x10], rs
    0x23c8c          297   41 8B C4 86 05 6A AA 0F  mov eax, r12d; xchg byte ptr [rip + 0xfaa6a], al; mov ecx, 0
    0x23db6          113   4C 89 7C 24 20 45 33 C9  mov qword ptr [rsp + 0x20], r15; xor r9d, r9d; xor r8d, r8d
    0x23e30            8   0F B6 05 D3 B8 0F 00 C3  movzx eax, byte ptr [rip + 0xfb8d3]; ret 
    0x23e40          475   48 89 5C 24 08 48 89 7C  mov qword ptr [rsp + 8], rbx; mov qword ptr [rsp + 0x10], rd
    0x2401b           70   B9 01 00 00 00 E8 6F 5B  mov ecx, 1; call 0x89b94; nop 
    0x24070          620   48 89 5C 24 08 48 89 7C  mov qword ptr [rsp + 8], rbx; mov qword ptr [rsp + 0x10], rd
    0x242dc           34   89 7D EF B9 06 00 00 00  mov dword ptr [rbp - 0x11], edi; mov ecx, 6; call 0x89b94
    0x242ff           56   48 89 7C 24 20 45 33 C9  mov qword ptr [rsp + 0x20], rdi; xor r9d, r9d; xor r8d, r8d
    0x24340           69   48 83 EC 28 48 8D 0D F5  sub rsp, 0x28; lea rcx, [rip + 0xf6af5]; call 0x8a598
    0x24385           20   B9 06 00 00 00 C7 05 F8  mov ecx, 6; mov dword ptr [rip + 0xf6af8], 0x7ffffffe; call 
    0x2439a           10   B9 05 00 00 00 E8 F0 57  mov ecx, 5; call 0x89b94
    0x243b0           85   48 83 EC 28 48 8D 0D 85  sub rsp, 0x28; lea rcx, [rip + 0xf6a85]; call 0x8a598
    0x24405           20   B9 06 00 00 00 C7 05 78  mov ecx, 6; mov dword ptr [rip + 0xf6a78], 0x7ffffffe; call 
    0x2441a           10   B9 05 00 00 00 E8 70 57  mov ecx, 5; call 0x89b94
    0x24430          142   48 89 5C 24 10 57 48 81  mov qword ptr [rsp + 0x10], rbx; push rdi; sub rsp, 0x80
    0x244c0          113   48 83 EC 58 B9 08 00 00  sub rsp, 0x58; mov ecx, 8; call 0x8ab24
    0x24531           29   B9 01 00 00 00 E8 59 56  mov ecx, 1; call 0x89b94; nop 
    0x24550          443   48 89 5C 24 10 48 89 6C  mov qword ptr [rsp + 0x10], rbx; mov qword ptr [rsp + 0x18],
    0x2470b           20   C7 05 57 68 0F 00 FE FF  mov dword ptr [rip + 0xf6857], 0x7ffffffe; mov ecx, 6; call 
    0x24720           10   B9 05 00 00 00 E8 6A 54  mov ecx, 5; call 0x89b94
    0x24730          587   48 89 5C 24 10 48 89 6C  mov qword ptr [rsp + 0x10], rbx; mov qword ptr [rsp + 0x18],
    0x2497b           20   C7 05 E7 65 0F 00 FE FF  mov dword ptr [rip + 0xf65e7], 0x7ffffffe; mov ecx, 6; call 
    0x24990           10   B9 05 00 00 00 E8 FA 51  mov ecx, 5; call 0x89b94
    0x249a0          334   40 53 55 56 57 41 56 48  push rbx; push rbp; push rsi
    0x24aee           16   E8 9D 02 FE FF 90 B9 05  call 0x4d90; nop ; mov ecx, 5
    0x24aff           20   C7 05 63 64 0F 00 FE FF  mov dword ptr [rip + 0xf6463], 0x7ffffffe; mov ecx, 6; call 
    0x24b20            7   8B 05 42 B6 0F 00 C3     mov eax, dword ptr [rip + 0xfb642]; ret 
    0x24b30          133   48 89 5C 24 10 56 48 83  mov qword ptr [rsp + 0x10], rbx; push rsi; sub rsp, 0x30
    0x24bb5           22   33 C0 45 33 C9 45 33 C0  xor eax, eax; xor r9d, r9d; xor r8d, r8d
    0x24bd0          109   48 89 5C 24 10 56 48 83  mov qword ptr [rsp + 0x10], rbx; push rsi; sub rsp, 0x20
    0x24c40          133   48 89 5C 24 08 57 48 83  mov qword ptr [rsp + 8], rbx; push rdi; sub rsp, 0x30
    0x24cc5           22   33 C0 45 33 C9 45 33 C0  xor eax, eax; xor r9d, r9d; xor r8d, r8d
    0x24ce0          186   48 89 5C 24 08 48 89 74  mov qword ptr [rsp + 8], rbx; mov qword ptr [rsp + 0x10], rs
    0x24d9a            5   E8 31 B6 FD FF           call 0x3d0
    0x24da0          529   48 89 5C 24 18 48 89 54  mov qword ptr [rsp + 0x18], rbx; mov qword ptr [rsp + 0x10],
    0x24fc0          105   45 33 D2 48 3B CA 74 5D  xor r10d, r10d; cmp rcx, rdx; je 0x25025
    0x25030          901   48 89 5C 24 08 48 89 6C  mov qword ptr [rsp + 8], rbx; mov qword ptr [rsp + 0x10], rb
    0x253b5           22   33 C0 48 89 44 24 20 45  xor eax, eax; mov qword ptr [rsp + 0x20], rax; xor r9d, r9d
    0x253cc            5   E8 BF F9 FD FF           call 0x4d90
    0x253d2            5   E8 59 AF FD FF           call 0x330
    0x253e0          394   48 89 5C 24 10 48 89 6C  mov qword ptr [rsp + 0x10], rbx; mov qword ptr [rsp + 0x18],
    0x2556a            5   E8 A1 66 FF FF           call 0x1bc10
    0x25570          420   48 89 5C 24 08 48 89 6C  mov qword ptr [rsp + 8], rbx; mov qword ptr [rsp + 0x10], rb
    0x25720          256   48 89 5C 24 10 48 89 6C  mov qword ptr [rsp + 0x10], rbx; mov qword ptr [rsp + 0x18],
    0x25820            5   E8 AB AB FD FF           call 0x3d0
    0x25826           24   45 33 C9 48 C7 44 24 20  xor r9d, r9d; mov qword ptr [rsp + 0x20], 0; xor r8d, r8d
    0x25840          349   48 89 5C 24 18 56 57 41  mov qword ptr [rsp + 0x18], rbx; push rsi; push rdi
    0x2599d           24   45 33 C9 48 C7 44 24 20  xor r9d, r9d; mov qword ptr [rsp + 0x20], 0; xor r8d, r8d
    0x259b6            5   E8 15 AA FD FF           call 0x3d0
    0x259c0          413   48 89 5C 24 10 48 89 6C  mov qword ptr [rsp + 0x10], rbx; mov qword ptr [rsp + 0x18],
    0x25b5d            5   E8 6E A8 FD FF           call 0x3d0
    0x25b70           49   40 53 48 83 EC 20 48 8B  push rbx; sub rsp, 0x20; mov rbx, rcx
    0x25bb0          143   48 89 5C 24 08 57 48 83  mov qword ptr [rsp + 8], rbx; push rdi; sub rsp, 0x60
    0x25c40          188   40 53 48 83 EC 50 48 8B  push rbx; sub rsp, 0x50; mov rbx, rcx
    0x25cfc           10   B9 01 00 00 00 E8 8E 3E  mov ecx, 1; call 0x89b94
    0x25d07           18   C7 44 24 38 00 00 00 00  mov dword ptr [rsp + 0x38], 0; mov ecx, 6; call 0x89b94
    0x25d20           90   40 53 48 83 EC 40 48 8B  push rbx; sub rsp, 0x40; mov rbx, rcx
    0x25d80          118   48 89 5C 24 10 48 89 6C  mov qword ptr [rsp + 0x10], rbx; mov qword ptr [rsp + 0x18],
    0x25e00          527   48 89 5C 24 18 55 56 57  mov qword ptr [rsp + 0x18], rbx; push rbp; push rsi
    0x2600f           29   48 8D 04 11 49 8B DF 49  lea rax, [rcx + rdx]; mov rbx, r15; cmp rax, r15
    0x2602d           30   E8 FE A2 FD FF 90 48 C7  call 0x330; nop ; mov qword ptr [rsp + 0x20], 0
    0x26050           46   40 53 48 83 EC 20 48 8B  push rbx; sub rsp, 0x20; mov rbx, qword ptr [rcx]
    0x26080           55   40 53 48 83 EC 20 48 8B  push rbx; sub rsp, 0x20; mov rbx, qword ptr [rcx]
    0x260c0           45   48 FF 41 08 4D 8B C8 4C  inc qword ptr [rcx + 8]; mov r9, r8; mov r11, qword ptr [rcx
    0x260ed          558   83 7A 08 00 75 10 4C 89  cmp dword ptr [rdx + 8], 0; jne 0x26103; mov qword ptr [rax 
    0x26320           90   48 89 5C 24 08 57 48 83  mov qword ptr [rsp + 8], rbx; push rdi; sub rsp, 0x20
    0x2637a           22   33 C0 48 3B DF 0F 97 C0  xor eax, eax; cmp rbx, rdi; seta al
    0x26390           13   48 8B 09 48 85 C9 0F 85  mov rcx, qword ptr [rcx]; test rcx, rcx; jne 0x143c0
    0x263a0          310   40 53 56 57 48 83 EC 70  push rbx; push rsi; push rdi
    0x264e0           20   48 8B 49 08 48 85 C9 74  mov rcx, qword ptr [rcx + 8]; test rcx, rcx; je 0x264f3
    0x26500          269   49 8B C0 48 3B CA 0F 84  mov rax, r8; cmp rcx, rdx; je 0x2660c
    0x26610           68   48 89 5C 24 08 57 48 83  mov qword ptr [rsp + 8], rbx; push rdi; sub rsp, 0x20
    0x26660           50   48 89 5C 24 08 57 48 83  mov qword ptr [rsp + 8], rbx; push rdi; sub rsp, 0x20
    0x266a0          142   40 57 48 83 EC 30 48 83  push rdi; sub rsp, 0x30; cmp qword ptr [rcx + 8], 0
    0x2672e           24   45 33 C9 48 C7 44 24 20  xor r9d, r9d; mov qword ptr [rsp + 0x20], 0; xor r8d, r8d
    0x26750         1275   48 89 5C 24 08 48 89 6C  mov qword ptr [rsp + 8], rbx; mov qword ptr [rsp + 0x10], rb
    0x26c50           60   40 53 48 83 EC 20 48 8B  push rbx; sub rsp, 0x20; mov rbx, rcx
    0x26c90           11   44 89 02 48 8B C2 48 89  mov dword ptr [rdx], r8d; mov rax, rdx; mov qword ptr [rdx +
    0x26ca0           55   40 53 48 83 EC 30 48 8B  push rbx; sub rsp, 0x30; mov rax, qword ptr [rcx]
    0x26cd7            8   32 C0 48 83 C4 30 5B C3  xor al, al; add rsp, 0x30; pop rbx
    0x26ce0           22   48 8B 42 08 4C 8B 48 08  mov rax, qword ptr [rdx + 8]; mov r9, qword ptr [rax + 8]; c
    0x26d00          427   40 53 56 57 48 81 EC C0  push rbx; push rsi; push rdi
    0x26eab           24   48 C7 44 24 20 00 00 00  mov qword ptr [rsp + 0x20], 0; xor r9d, r9d; xor r8d, r8d
    0x26ed0           66   48 89 5C 24 08 57 48 83  mov qword ptr [rsp + 8], rbx; push rdi; sub rsp, 0x20
    0x26f20           87   48 89 5C 24 08 57 48 83  mov qword ptr [rsp + 8], rbx; push rdi; sub rsp, 0x20
    0x26f80           77   48 89 5C 24 08 57 48 83  mov qword ptr [rsp + 8], rbx; push rdi; sub rsp, 0x20
    0x26fd0            9   48 83 EC 18 48 83 C4 18  sub rsp, 0x18; add rsp, 0x18; ret 
    0x26fe0          668   48 89 5C 24 18 48 89 4C  mov qword ptr [rsp + 0x18], rbx; mov qword ptr [rsp + 8], rc
    0x2727c            5   E8 0F DB FD FF           call 0x4d90
    0x27290           31   40 53 48 83 EC 20 48 8B  push rbx; sub rsp, 0x20; mov rbx, rcx
    0x272b0          275   48 89 5C 24 10 48 89 7C  mov qword ptr [rsp + 0x10], rbx; mov qword ptr [rsp + 0x18],
    0x273d0          287   40 53 56 57 48 83 EC 70  push rbx; push rsi; push rdi
    0x274f0         1745   48 89 5C 24 10 48 89 74  mov qword ptr [rsp + 0x10], rbx; mov qword ptr [rsp + 0x18],
    0x27bc1            6   E8 0A 88 FD FF 90        call 0x3d0; nop 
    0x27bd0          356   48 89 5C 24 18 48 89 74  mov qword ptr [rsp + 0x18], rbx; mov qword ptr [rsp + 0x20],
    0x27d40          452   48 89 5C 24 08 48 89 6C  mov qword ptr [rsp + 8], rbx; mov qword ptr [rsp + 0x10], rb
    0x27f04           29   48 8D 04 0A 48 8B DF 48  lea rax, [rdx + rcx]; mov rbx, rdi; cmp rax, rdi
    0x27f22           30   E8 09 84 FD FF 90 48 C7  call 0x330; nop ; mov qword ptr [rsp + 0x20], 0
    0x27f50           85   40 53 48 83 EC 30 48 8B  push rbx; sub rsp, 0x30; mov rbx, rcx
    0x27fa5           22   33 C0 45 33 C9 45 33 C0  xor eax, eax; xor r9d, r9d; xor r8d, r8d
    0x27fc0          152   4D 8B C8 48 3B CA 0F 84  mov r9, r8; cmp rcx, rdx; je 0x28054
    0x28060          127   40 56 48 83 EC 30 48 83  push rsi; sub rsp, 0x30; cmp qword ptr [rcx + 8], 0
    0x280df           24   45 33 C9 48 C7 44 24 20  xor r9d, r9d; mov qword ptr [rsp + 0x20], 0; xor r8d, r8d
    0x28100          299   48 89 5C 24 10 48 89 6C  mov qword ptr [rsp + 0x10], rbx; mov qword ptr [rsp + 0x18],
    0x2822b          292   4C 8B 1F 48 85 D2 79 22  mov r11, qword ptr [rdi]; test rdx, rdx; jns 0x28255
    0x28350           16   48 83 EC 28 48 8D 0D 4D  sub rsp, 0x28; lea rcx, [rip + 0xd974d]; call 0x89db4
    0x28370          307   40 53 56 57 48 83 EC 30  push rbx; push rsi; push rdi
    0x284a3            5   E8 E8 C8 FD FF           call 0x4d90
    0x284a9            5   E8 82 7E FD FF           call 0x330
    0x284af           24   45 33 C9 48 C7 44 24 20  xor r9d, r9d; mov qword ptr [rsp + 0x20], 0; xor r8d, r8d
    0x284d0          152   48 89 5C 24 18 57 48 83  mov qword ptr [rsp + 0x18], rbx; push rdi; sub rsp, 0x40
    0x28570          292   48 81 EC 88 00 00 00 48  sub rsp, 0x88; mov rax, qword ptr [rip + 0xf1b02]; xor rax, 
    0x286a0         5415   48 89 5C 24 20 55 56 57  mov qword ptr [rsp + 0x20], rbx; push rbp; push rsi
    0x29bd0         1188   40 53 56 57 48 81 EC 80  push rbx; push rsi; push rdi
    0x2a074           31   48 89 7C 24 20 45 33 C9  mov qword ptr [rsp + 0x20], rdi; xor r9d, r9d; xor r8d, r8d
    0x2a094           20   C7 05 8E 0D 0F 00 FE FF  mov dword ptr [rip + 0xf0d8e], 0x7ffffffe; mov ecx, 6; call 
    0x2a0b0          677   48 89 5C 24 08 48 89 74  mov qword ptr [rsp + 8], rbx; mov qword ptr [rsp + 0x10], rs
    0x2a360           67   48 83 EC 38 48 89 0D 15  sub rsp, 0x38; mov qword ptr [rip + 0xf5e15], rcx; call qwor
    0x2a3b0          161   40 53 48 83 EC 20 48 8B  push rbx; sub rsp, 0x20; mov rcx, qword ptr [rip + 0xf5deb]
    0x2a460          556   48 89 5C 24 08 55 56 57  mov qword ptr [rsp + 8], rbx; push rbp; push rsi
    0x2a690           42   40 53 48 83 EC 20 48 8B  push rbx; sub rsp, 0x20; mov rbx, rcx
    0x2a6c0           19   48 8B 09 48 85 C9 74 0A  mov rcx, qword ptr [rcx]; test rcx, rcx; je 0x2a6d2
    0x2a6e0          126   48 89 5C 24 08 48 89 6C  mov qword ptr [rsp + 8], rbx; mov qword ptr [rsp + 0x10], rb
    0x2a75e           76   48 C7 C0 FF FF FF FF 48  mov rax, 0xffffffffffffffff; inc rax; cmp byte ptr [rdi + ra
    0x2a7b0          219   48 89 5C 24 10 48 89 6C  mov qword ptr [rsp + 0x10], rbx; mov qword ptr [rsp + 0x18],
    0x2a88b          571   44 8B F5 45 2B F7 41 FF  mov r14d, ebp; sub r14d, r15d; dec r14d
    0x2aad0          353   40 53 0F 57 C0 48 8B D9  push rbx; xorps xmm0, xmm0; mov rbx, rcx
    0x2ac31           21   41 80 F9 01 75 0F 49 8D  cmp r9b, 1; jne 0x2ac46; lea rcx, [r8 + 2]
    0x2ac46           21   41 80 F9 02 75 04 49 8D  cmp r9b, 2; jne 0x2ac50; lea rcx, [r8 + 5]
    0x2ac5b           86   8D 41 89 41 B1 01 3C 32  lea eax, [rcx - 0x77]; mov r9b, 1; cmp al, 0x32
    0x2acb1           20   45 84 C9 0F 85 C5 FE FF  test r9b, r9b; jne 0x2ab7f; sub r8b, bl
    0x2acc5          134   8D 48 B0 80 F9 0F 76 ED  lea ecx, [rax - 0x50]; cmp cl, 0xf; jbe 0x2acba
    0x2ad4b           67   3C 3D 77 10 49 B9 20 20  cmp al, 0x3d; ja 0x2ad5f; movabs r9, 0x2020202020202020
    0x2ad8e           29   80 7A 04 00 B8 02 00 00  cmp byte ptr [rdx + 4], 0; mov eax, 2; mov ecx, 4
    0x2adab          204   3C 3F 77 0F 0F B6 C8 80  cmp al, 0x3f; ja 0x2adbe; movzx ecx, al
    0x2ae77           43   45 32 D2 84 C9 75 24 41  xor r10b, r10b; test cl, cl; jne 0x2aea2
    0x2aea2           19   80 F9 01 75 0E 49 FF C0  cmp cl, 1; jne 0x2aeb5; inc r8
    0x2aeb5           24   80 F9 02 0F 85 FC FD FF  cmp cl, 2; jne 0x2acba; add r8, 4
    0x2aecd          236   40 B6 01 41 0F B6 38 49  mov sil, 1; movzx edi, byte ptr [r8]; inc r8
    0x2afc0          449   48 89 5C 24 10 48 89 6C  mov qword ptr [rsp + 0x10], rbx; mov qword ptr [rsp + 0x18],
    0x2b190         1569   40 55 56 57 41 54 41 55  push rbp; push rsi; push rdi
    0x2b7b1            5   E8 56 F8 05 00           call 0x8b00c
    0x2b7b7            5   E8 50 F8 05 00           call 0x8b00c
    0x2b7bd            5   E8 4A F8 05 00           call 0x8b00c
    0x2b7c3            5   E8 44 F8 05 00           call 0x8b00c
    0x2b7d0         2523   40 53 56 41 54 41 56 41  push rbx; push rsi; push r12
    0x2c1ab          176   48 8D 0D CE 56 34 00 FF  lea rcx, [rip + 0x3456ce]; call qword ptr [rip + 0x8d360]; m
    0x2c25c            5   E8 AB ED 05 00           call 0x8b00c
    0x2c270          596   48 89 6C 24 20 56 57 41  mov qword ptr [rsp + 0x20], rbp; push rsi; push rdi
    0x2c4c4           68   8B C7 48 69 D0 48 92 00  mov eax, edi; imul rdx, rax, 0x9248; add rdx, r15
    0x2c510          114   40 53 48 83 EC 20 48 8B  push rbx; sub rsp, 0x20; mov rbx, rcx
    0x2c590          510   41 54 41 55 41 56 41 57  push r12; push r13; push r14
    0x2c78e          706   41 83 FE 04 75 47 41 81  cmp r14d, 4; jne 0x2c7db; cmp dword ptr [r12], 0x37733266
    0x2ca60          980   4C 8B DC 49 89 4B 08 53  mov r11, rsp; mov qword ptr [r11 + 8], rcx; push rbx
    0x2ce40          715   4C 8B DC 48 83 EC 78 0F  mov r11, rsp; sub rsp, 0x78; movzx eax, byte ptr [rip + 0xf2
    0x2d110          896   48 89 5C 24 10 57 48 83  mov qword ptr [rsp + 0x10], rbx; push rdi; sub rsp, 0x20
    0x2d490          220   48 89 5C 24 10 57 48 83  mov qword ptr [rsp + 0x10], rbx; push rdi; sub rsp, 0x20
    0x2d56c           26   48 8D 0D CD 45 34 00 FF  lea rcx, [rip + 0x3445cd]; call qword ptr [rip + 0x8bf9f]; x
    0x2d586          153   48 8B 05 E3 45 34 00 48  mov rax, qword ptr [rip + 0x3445e3]; test rax, rax; je 0x2d5
    0x2d620          117   40 53 48 83 EC 20 80 3D  push rbx; sub rsp, 0x20; cmp byte ptr [rip + 0xf2aba], 0
    0x2d6a0          158   48 89 5C 24 08 48 89 6C  mov qword ptr [rsp + 8], rbx; mov qword ptr [rsp + 0x10], rb
    0x2d740           75   40 53 48 83 EC 20 33 C9  push rbx; sub rsp, 0x20; xor ecx, ecx
    0x2d790           22   48 83 EC 48 0F B6 05 D4  sub rsp, 0x48; movzx eax, byte ptr [rip + 0xf29d4]; test al,
    0x2d7a6          179   48 89 5C 24 60 48 8D 15  mov qword ptr [rsp + 0x60], rbx; lea rdx, [rip + 0xd506e]; m
    0x2d859          401   48 8B D7 48 8D 0D 2D 50  mov rdx, rdi; lea rcx, [rip + 0xd502d]; call 0x147b0
    0x2d9f0          116   40 53 48 83 EC 30 48 8B  push rbx; sub rsp, 0x30; mov rbx, rcx
    0x2da64           22   33 C0 45 33 C9 45 33 C0  xor eax, eax; xor r9d, r9d; xor r8d, r8d
    0x2da80         1291   48 89 5C 24 18 48 89 74  mov qword ptr [rsp + 0x18], rbx; mov qword ptr [rsp + 0x20],
    0x2df90          719   40 56 48 83 EC 40 0F B6  push rsi; sub rsp, 0x40; movzx eax, byte ptr [rip + 0x343c7d
    0x2e260          201   48 83 EC 28 0F B6 05 AF  sub rsp, 0x28; movzx eax, byte ptr [rip + 0x3439af]; cmp cl,
    0x2e329          145   80 3D E9 38 34 00 00 74  cmp byte ptr [rip + 0x3438e9], 0; je 0x2e3a9; mov rbx, qword
    0x2e3c0            8   0F B6 05 53 38 34 00 C3  movzx eax, byte ptr [rip + 0x343853]; ret 
    0x2e3d0          201   48 83 EC 28 0F B6 05 4F  sub rsp, 0x28; movzx eax, byte ptr [rip + 0x34384f]; cmp cl,
    0x2e499          145   80 3D 89 37 34 00 00 74  cmp byte ptr [rip + 0x343789], 0; je 0x2e519; mov rbx, qword
    0x2e530            8   0F B6 05 F3 36 34 00 C3  movzx eax, byte ptr [rip + 0x3436f3]; ret 
    0x2e540          201   48 83 EC 28 0F B6 05 F7  sub rsp, 0x28; movzx eax, byte ptr [rip + 0x3436f7]; cmp cl,
    0x2e609          145   80 3D 31 36 34 00 00 74  cmp byte ptr [rip + 0x343631], 0; je 0x2e689; mov rbx, qword
    0x2e6a0            8   0F B6 05 9B 35 34 00 C3  movzx eax, byte ptr [rip + 0x34359b]; ret 
    0x2e6b0          201   48 83 EC 28 0F B6 05 A7  sub rsp, 0x28; movzx eax, byte ptr [rip + 0x3435a7]; cmp cl,
    0x2e779          145   80 3D E1 34 34 00 00 74  cmp byte ptr [rip + 0x3434e1], 0; je 0x2e7f9; mov rbx, qword
    0x2e810            8   0F B6 05 4B 34 34 00 C3  movzx eax, byte ptr [rip + 0x34344b]; ret 
    0x2e820          201   48 83 EC 28 0F B6 05 47  sub rsp, 0x28; movzx eax, byte ptr [rip + 0x343447]; cmp cl,
    0x2e8e9          145   80 3D 81 33 34 00 00 74  cmp byte ptr [rip + 0x343381], 0; je 0x2e969; mov rbx, qword
    0x2e980            8   0F B6 05 EB 32 34 00 C3  movzx eax, byte ptr [rip + 0x3432eb]; ret 
    0x2e990          631   48 81 EC 78 02 00 00 48  sub rsp, 0x278; mov rax, qword ptr [rip + 0xeb6e2]; xor rax,
    0x2ec10          371   48 8B C4 48 89 58 08 48  mov rax, rsp; mov qword ptr [rax + 8], rbx; mov qword ptr [r
    0x2ed90         1158   83 F9 22 0F 87 7C 04 00  cmp ecx, 0x22; ja 0x2f215; mov r11, rsp
    0x2f220          551   48 8B C4 48 81 EC 88 00  mov rax, rsp; sub rsp, 0x88; mov qword ptr [rax - 8], rbx
    0x2f450           18   48 63 C1 48 8D 0D E6 BE  movsxd rax, ecx; lea rcx, [rip + 0xebee6]; imul rax, rax, 0x
    0x2f470          868   40 55 53 56 57 41 56 41  push rbp; push rbx; push rsi
    0x2f7d4           38   49 FF C2 49 FF C1 4D 3B  inc r10; inc r9; cmp r9, r11
    0x2f7fa         1161   48 8B 1D DF 25 34 00 48  mov rbx, qword ptr [rip + 0x3425df]; test rbx, rbx; je 0x2f8
    0x2fc90           76   80 3D 42 05 0F 00 00 74  cmp byte ptr [rip + 0xf0542], 0; je 0x2fcdb; movzx eax, byte
    0x2fce0         1404   4C 8B DC 55 41 56 49 8D  mov r11, rsp; push rbp; push r14
    0x30260          512   40 55 53 56 57 41 56 41  push rbp; push rbx; push rsi
    0x30460          532   48 8B 1D 79 19 34 00 48  mov rbx, qword ptr [rip + 0x341979]; test rbx, rbx; je 0x304
    0x30680           77   80 3D 30 FB 0E 00 00 74  cmp byte ptr [rip + 0xefb30], 0; je 0x306cc; movzx r8d, byte
    0x306d0          735   48 8B C4 55 41 56 48 8D  mov rax, rsp; push rbp; push r14
    0x309b0          541   40 55 53 56 57 41 56 41  push rbp; push rbx; push rsi
    0x30bcd          532   48 8B 1D 0C 12 34 00 48  mov rbx, qword ptr [rip + 0x34120c]; test rbx, rbx; je 0x30c
    0x30df0           93   80 3D DE F3 0E 00 00 74  cmp byte ptr [rip + 0xef3de], 0; je 0x30e4c; movzx r8d, byte
    0x30e50           26   48 8B 05 51 0E 34 00 F3  mov rax, qword ptr [rip + 0x340e51]; movss dword ptr [rip + 
    0x30e70          735   48 8B C4 55 41 56 48 8D  mov rax, rsp; push rbp; push r14
    0x31150          527   40 55 53 56 57 41 56 41  push rbp; push rbx; push rsi
    0x3135f          535   48 8B 1D 7A 0A 34 00 48  mov rbx, qword ptr [rip + 0x340a7a]; test rbx, rbx; je 0x313
    0x31580          739   48 8B C4 55 41 56 48 8D  mov rax, rsp; push rbp; push r14
    0x31870          553   40 53 48 83 EC 40 48 8B  push rbx; sub rsp, 0x40; mov rax, qword ptr [rip + 0xe8803]
    0x31a99           40   49 FF C2 49 FF C0 4C 3B  inc r10; inc r8; cmp r8, rsi
    0x31ad0          849   4C 8B DC 55 49 8D 6B A1  mov r11, rsp; push rbp; lea rbp, [r11 - 0x5f]
    0x31e30           58   44 89 44 24 18 56 57 41  mov dword ptr [rsp + 0x18], r8d; push rsi; push rdi
    0x31e6a          476   80 3D 45 E3 0E 00 00 66  cmp byte ptr [rip + 0xee345], 0; movdqa xmm0, xmmword ptr [r
    0x32050         2667   48 8B C4 55 48 8D 68 A1  mov rax, rsp; push rbp; lea rbp, [rax - 0x5f]
    0x32ac0          766   40 55 53 57 48 8B EC 48  push rbp; push rbx; push rdi
    0x32dc0          108   40 53 48 83 EC 30 49 8B  push rbx; sub rsp, 0x30; mov rbx, r8
    0x32e2c           31   81 FA EB 0B 00 00 75 17  cmp edx, 0xbeb; jne 0x32e4b; test rbx, rbx
    0x32e4b           33   44 8B C2 4C 89 4C 24 20  mov r8d, edx; mov qword ptr [rsp + 0x20], r9; mov rdx, rcx
    0x32e70          175   48 89 5C 24 18 57 48 81  mov qword ptr [rsp + 0x18], rbx; push rdi; sub rsp, 0x130
    0x32f20          126   40 56 48 83 EC 20 48 63  push rsi; sub rsp, 0x20; movsxd rsi, dword ptr [rip + 0x33ed
    0x32f9e           11   B8 FF FF FF FF 48 83 C4  mov eax, 0xffffffff; add rsp, 0x20; pop rsi
    0x32fb0          179   40 55 41 56 41 57 48 83  push rbp; push r14; push r15
    0x33063           15   B8 FF FF FF FF 48 83 C4  mov eax, 0xffffffff; add rsp, 0x20; pop r15
    0x33080          253   40 56 41 56 48 83 EC 38  push rsi; push r14; sub rsp, 0x38
    0x3317d         2936   48 89 05 A4 EC 33 00 48  mov qword ptr [rip + 0x33eca4], rax; lea rdx, [rip + 0xd0f45
    0x33d00          404   4C 8B DC 41 55 48 83 EC  mov r11, rsp; push r13; sub rsp, 0x50
    0x33ea0          356   4C 8B DC 41 57 48 83 EC  mov r11, rsp; push r15; sub rsp, 0x40
    0x34004            5   E8 03 70 05 00           call 0x8b00c
    0x34010           20   83 F9 0B 77 0F 48 63 C1  cmp ecx, 0xb; ja 0x34024; movsxd rax, ecx
    0x34024            8   48 8D 05 E5 03 0D 00 C3  lea rax, [rip + 0xd03e5]; ret 
    0x34030           24   83 F9 0B 77 13 48 63 C1  cmp ecx, 0xb; ja 0x34048; movsxd rax, ecx
    0x34050           24   83 F9 0B 77 13 48 63 C1  cmp ecx, 0xb; ja 0x34068; movsxd rax, ecx
    0x34070           17   48 8B 05 89 DE 33 00 48  mov rax, qword ptr [rip + 0x33de89]; test rax, rax; je 0x340
    0x34081            9   F3 0F 10 05 A7 83 0E 00  movss xmm0, dword ptr [rip + 0xe83a7]; ret 
    0x34090           25   48 8B 05 69 DE 33 00 F3  mov rax, qword ptr [rip + 0x33de69]; movss dword ptr [rip + 
    0x340b0           15   48 8B 05 59 EE 33 00 48  mov rax, qword ptr [rip + 0x33ee59]; test rax, rax; je 0x340
    0x340bf            6   B8 0A 00 00 00 C3        mov eax, 0xa; ret 
    0x340d0           32   48 8B 05 39 EE 33 00 48  mov rax, qword ptr [rip + 0x33ee39]; test rax, rax; je 0x341
    0x340f0           20   BA 63 00 00 00 C7 40 04  mov edx, 0x63; mov dword ptr [rax + 4], 0; cmp ecx, edx
    0x34110           51   48 8B 0D 31 DD 33 00 48  mov rcx, qword ptr [rip + 0x33dd31]; test rcx, rcx; je 0x341
    0x34143            4   0F 57 C0 C3              xorps xmm0, xmm0; ret 
    0x34150           15   48 8B 0D F1 DC 33 00 48  mov rcx, qword ptr [rip + 0x33dcf1]; test rcx, rcx; jne 0x34
    0x3415f           16   48 8B 05 9A DC 33 00 80  mov rax, qword ptr [rip + 0x33dc9a]; cmp byte ptr [rax + rcx
    0x34170           24   48 8B 15 D1 DC 33 00 48  mov rdx, qword ptr [rip + 0x33dcd1]; test rdx, rdx; je 0x341
    0x34190           38   48 89 5C 24 18 56 57 41  mov qword ptr [rsp + 0x18], rbx; push rsi; push rdi
    0x341b6         1070   80 3D 32 C1 0E 00 00 0F  cmp byte ptr [rip + 0xec132], 0; jne 0x343d5; lea rdx, [rip 
    0x345f0           12   80 3D F5 BC 0E 00 00 75  cmp byte ptr [rip + 0xebcf5], 0; jne 0x345fc; xor eax, eax
    0x345fc           21   83 3D 31 7E 0E 00 00 B8  cmp dword ptr [rip + 0xe7e31], 0; mov eax, 7; mov ecx, 0xa
    0x34620           73   80 3D C5 BC 0E 00 00 74  cmp byte ptr [rip + 0xebcc5], 0; je 0x34669; test ecx, ecx
    0x34669            8   48 8D 05 F0 FF 0C 00 C3  lea rax, [rip + 0xcfff0]; ret 
    0x34680          102   80 3D 65 BC 0E 00 00 74  cmp byte ptr [rip + 0xebc65], 0; je 0x346e2; test ecx, ecx
    0x346f0          167   40 53 48 83 EC 30 0F 29  push rbx; sub rsp, 0x30; movaps xmmword ptr [rsp + 0x20], xm
    0x347a0          239   48 89 5C 24 10 48 89 74  mov qword ptr [rsp + 0x10], rbx; mov qword ptr [rsp + 0x18],
    0x34890          262   48 89 5C 24 08 48 89 74  mov qword ptr [rsp + 8], rbx; mov qword ptr [rsp + 0x10], rs
    0x349a0           99   48 83 EC 28 C6 05 34 B8  sub rsp, 0x28; mov byte ptr [rip + 0xeb834], 0; mov qword pt
    0x34a03            7   32 C0 48 83 C4 28 C3     xor al, al; add rsp, 0x28; ret 
    0x34a10          119   48 89 5C 24 08 57 48 83  mov qword ptr [rsp + 8], rbx; push rdi; sub rsp, 0x20
    0x34a87           13   48 8B 5C 24 30 32 C0 48  mov rbx, qword ptr [rsp + 0x30]; xor al, al; add rsp, 0x20
    0x34aa0           90   48 89 54 24 10 4C 89 44  mov qword ptr [rsp + 0x10], rdx; mov qword ptr [rsp + 0x18],
    0x34b00          382   48 89 5C 24 18 55 56 57  mov qword ptr [rsp + 0x18], rbx; push rbp; push rsi
    0x34c80          188   48 89 5C 24 18 48 89 4C  mov qword ptr [rsp + 0x18], rbx; mov qword ptr [rsp + 8], rc
    0x34d40         1124   48 89 5C 24 10 48 89 74  mov qword ptr [rsp + 0x10], rbx; mov qword ptr [rsp + 0x18],
    0x351a4           41   4C 89 7C 24 20 45 33 C9  mov qword ptr [rsp + 0x20], r15; xor r9d, r9d; xor r8d, r8d
    0x351ce            5   E8 FD B1 FC FF           call 0x3d0
    0x351e0          655   40 55 48 8D 6C 24 B0 48  push rbp; lea rbp, [rsp - 0x50]; sub rsp, 0x150
    0x3546f           24   45 33 C9 48 C7 44 24 20  xor r9d, r9d; mov qword ptr [rsp + 0x20], 0; xor r8d, r8d
    0x35490          875   48 89 5C 24 20 55 56 57  mov qword ptr [rsp + 0x20], rbx; push rbp; push rsi
    0x357fb           20   48 89 4C 24 20 45 33 C9  mov qword ptr [rsp + 0x20], rcx; xor r9d, r9d; xor r8d, r8d
    0x35810          323   48 89 5C 24 18 48 89 74  mov qword ptr [rsp + 0x18], rbx; mov qword ptr [rsp + 0x20],
    0x35960          265   48 89 5C 24 18 55 56 57  mov qword ptr [rsp + 0x18], rbx; push rbp; push rsi
    0x35a69         1584   48 BA FF FF FF FF FF FF  movabs rdx, 0x7fffffffffffffff; mov rax, rdx; mov r12, qword
    0x3609a          152   48 89 7C 24 20 45 33 C9  mov qword ptr [rsp + 0x20], rdi; xor r9d, r9d; xor r8d, r8d
    0x36140         2091   48 89 5C 24 18 55 56 57  mov qword ptr [rsp + 0x18], rbx; push rbp; push rsi
    0x3696b          131   48 89 7C 24 20 45 33 C9  mov qword ptr [rsp + 0x20], rdi; xor r9d, r9d; xor r8d, r8d
    0x369f0          703   48 89 5C 24 20 55 56 57  mov qword ptr [rsp + 0x20], rbx; push rbp; push rsi
    0x36caf          144   48 8B 45 EF 0F 57 C0 0F  mov rax, qword ptr [rbp - 0x11]; xorps xmm0, xmm0; movups xm
    0x36d40           26   E8 8B 96 FC FF 90 4C 89  call 0x3d0; nop ; mov qword ptr [rsp + 0x20], r15
    0x36d60          553   48 8B C4 48 89 58 08 57  mov rax, rsp; mov qword ptr [rax + 8], rbx; push rdi
    0x36f90          592   48 89 5C 24 08 57 48 81  mov qword ptr [rsp + 8], rbx; push rdi; sub rsp, 0x480
    0x371e0           22   48 83 EC 28 48 8B D1 48  sub rsp, 0x28; mov rdx, rcx; lea rcx, [rsp + 0x38]
    0x37200           45   40 53 48 83 EC 20 48 8B  push rbx; sub rsp, 0x20; mov rbx, rcx
    0x37230            9   48 83 EC 28 E8 27 FB FF  sub rsp, 0x28; call 0x36d60
    0x37250          162   40 53 48 83 EC 20 4C 8B  push rbx; sub rsp, 0x20; mov r9, qword ptr [rcx + 8]
    0x37300          125   48 89 5C 24 08 57 48 83  mov qword ptr [rsp + 8], rbx; push rdi; sub rsp, 0x20
    0x37380           80   48 89 4C 24 08 48 89 54  mov qword ptr [rsp + 8], rcx; mov qword ptr [rsp + 0x10], rd
    0x373d0          136   48 83 EC 28 4C 8B 49 08  sub rsp, 0x28; mov r9, qword ptr [rcx + 8]; test r9, r9
    0x37460          321   48 89 5C 24 08 48 89 74  mov qword ptr [rsp + 8], rbx; mov qword ptr [rsp + 0x10], rs
    0x375b0          419   48 89 5C 24 08 57 48 83  mov qword ptr [rsp + 8], rbx; push rdi; sub rsp, 0x20
    0x37760            5   E9 0B FA 05 00           jmp 0x97170
    0x37770            5   E9 CB F8 05 00           jmp 0x97040
    0x37780          524   40 53 48 83 EC 20 48 8B  push rbx; sub rsp, 0x20; mov rbx, rcx
    0x37990          508   48 89 5C 24 08 57 48 83  mov qword ptr [rsp + 8], rbx; push rdi; sub rsp, 0x20
    0x37b90          186   85 D2 0F 84 B1 00 00 00  test edx, edx; je 0x37c49; push rbx
    0x37c50          139   40 53 48 83 EC 20 48 8B  push rbx; sub rsp, 0x20; mov rdx, qword ptr [rcx + 0xd8]
    0x37ce0          505   48 83 EC 48 45 0F B6 D8  sub rsp, 0x48; movzx r11d, r8b; test edx, edx
    0x37ee0          375   48 83 EC 48 80 B9 71 0B  sub rsp, 0x48; cmp byte ptr [rcx + 0xb71], 0; mov rdx, qword
    0x38060          532   48 89 74 24 20 57 48 83  mov qword ptr [rsp + 0x20], rsi; push rdi; sub rsp, 0x40
    0x38280          209   40 53 48 83 EC 40 80 B9  push rbx; sub rsp, 0x40; cmp byte ptr [rcx + 0xb71], 0
    0x38360          118   4C 89 44 24 18 4C 89 4C  mov qword ptr [rsp + 0x18], r8; mov qword ptr [rsp + 0x20], 
    0x383e0           29   4C 89 44 24 18 4C 89 4C  mov qword ptr [rsp + 0x18], r8; mov qword ptr [rsp + 0x20], 
    0x38400          123   40 55 56 57 41 56 41 57  push rbp; push rsi; push rdi
    0x3847b           81   80 F9 2E 75 4C 41 80 78  cmp cl, 0x2e; jne 0x384cc; cmp byte ptr [r8 + 2], 0x2a
    0x384cc          164   48 89 5C 24 60 4C 89 64  mov qword ptr [rsp + 0x60], rbx; mov qword ptr [rsp + 0x68],
    0x38570           93   48 89 5C 24 08 45 8B D8  mov qword ptr [rsp + 8], rbx; mov r11d, r8d; mov r10, rdx
    0x385cd           75   44 0F B6 11 4C 8D 41 01  movzx r10d, byte ptr [rcx]; lea r8, [rcx + 1]; test r10b, r1
    0x38620          421   48 89 5C 24 18 55 56 57  mov qword ptr [rsp + 0x18], rbx; push rbp; push rsi
    0x387d0           67   48 89 5C 24 18 48 89 74  mov qword ptr [rsp + 0x18], rbx; mov qword ptr [rsp + 0x20],
    0x38813          329   48 89 6C 24 30 48 8B CB  mov qword ptr [rsp + 0x30], rbp; mov rcx, rbx; mov qword ptr
    0x38960          428   48 89 5C 24 08 48 89 6C  mov qword ptr [rsp + 8], rbx; mov qword ptr [rsp + 0x10], rb
    0x38b10           23   81 FA 80 00 00 00 73 0F  cmp edx, 0x80; jae 0x38b27; mov eax, 1
    0x38b27           39   81 FA 00 08 00 00 73 1F  cmp edx, 0x800; jae 0x38b4e; mov eax, edx
    0x38b4e           51   81 FA 00 00 01 00 73 2B  cmp edx, 0x10000; jae 0x38b81; mov eax, edx
    0x38b81           63   81 FA FF FF 10 00 77 37  cmp edx, 0x10ffff; ja 0x38bc0; mov eax, edx
    0x38bc0            9   33 C0 88 04 08 48 8B C1  xor eax, eax; mov byte ptr [rax + rcx], al; mov rax, rcx
    0x38bd0          173   F3 0F 10 11 0F 57 C0 0F  movss xmm2, dword ptr [rcx]; xorps xmm0, xmm0; comiss xmm0, 
    0x38c80           84   40 53 48 83 EC 50 0F 29  push rbx; sub rsp, 0x50; movaps xmmword ptr [rsp + 0x40], xm
    0x38cd4          331   0F 29 7C 24 30 F3 0F 10  movaps xmmword ptr [rsp + 0x30], xmm7; movss xmm7, dword ptr
    0x38e1f           25   90 54 9D 03 00 75 9D 03  nop ; push rsp; popfq 
    0x38e40          126   48 89 5C 24 08 57 48 83  mov qword ptr [rsp + 8], rbx; push rdi; sub rsp, 0x30
    0x38ebe           41   4C 8D 44 24 20 44 89 54  lea r8, [rsp + 0x20]; mov dword ptr [rsp + 0x20], r10d; mov 
    0x38ef0          206   48 89 5C 24 08 48 89 74  mov qword ptr [rsp + 8], rbx; mov qword ptr [rsp + 0x10], rs
    0x38fc0           34   48 89 54 24 10 4C 89 44  mov qword ptr [rsp + 0x10], rdx; mov qword ptr [rsp + 0x18],
    0x38ff0          302   48 89 6C 24 18 48 89 74  mov qword ptr [rsp + 0x18], rbp; mov qword ptr [rsp + 0x20],
    0x39120          302   48 89 5C 24 18 57 41 56  mov qword ptr [rsp + 0x18], rbx; push rdi; push r14
    0x39250          136   48 83 EC 28 4C 8B 49 20  sub rsp, 0x28; mov r9, qword ptr [rcx + 0x20]; test r9, r9
    0x392e0           14   48 8B 05 91 52 0E 00 48  mov rax, qword ptr [rip + 0xe5291]; add rax, 0xbf0; ret 
    0x392f0          110   48 89 5C 24 08 48 89 6C  mov qword ptr [rsp + 8], rbx; mov qword ptr [rsp + 0x10], rb
    0x39360          112   40 53 48 83 EC 20 48 8B  push rbx; sub rsp, 0x20; mov rbx, qword ptr [rip + 0xe520b]
    0x393d0          118   40 57 48 83 EC 40 48 8B  push rdi; sub rsp, 0x40; mov rdi, qword ptr [rip + 0xe519b]
    0x39446           22   48 8D 0D F3 B8 0C 00 0F  lea rcx, [rip + 0xcb8f3]; movaps xmm6, xmmword ptr [rsp + 0x
    0x39460          133   40 57 48 83 EC 40 48 8B  push rdi; sub rsp, 0x40; mov rdi, qword ptr [rip + 0xe510b]
    0x394e5           22   48 8D 0D 54 B8 0C 00 0F  lea rcx, [rip + 0xcb854]; movaps xmm6, xmmword ptr [rsp + 0x
    0x39500           96   48 89 5C 24 08 57 48 83  mov qword ptr [rsp + 8], rbx; push rdi; sub rsp, 0x30
    0x39560          630   40 53 48 83 EC 20 48 8B  push rbx; sub rsp, 0x20; mov rbx, qword ptr [rip + 0xe500b]
    0x397e0          800   40 53 55 56 57 41 56 48  push rbx; push rbp; push rsi
    0x39b00          760   40 53 55 56 57 41 56 48  push rbx; push rbp; push rsi
    0x39e00          773   48 89 5C 24 08 48 89 74  mov qword ptr [rsp + 8], rbx; mov qword ptr [rsp + 0x18], rs
    0x3a110          656   40 55 57 41 55 41 56 48  push rbp; push rdi; push r13
    0x3a3a0         1511   48 8B C4 48 89 50 10 55  mov rax, rsp; mov qword ptr [rax + 0x10], rdx; push rbp
    0x3a990          407   48 8B C4 48 89 70 20 57  mov rax, rsp; mov qword ptr [rax + 0x20], rsi; push rdi
    0x3ab30          323   4C 8B DC 53 48 81 EC 90  mov r11, rsp; push rbx; sub rsp, 0x90
    0x3ac80         1029   40 55 48 8D 6C 24 A9 48  push rbp; lea rbp, [rsp - 0x57]; sub rsp, 0xa0
    0x3b090         1375   4C 8B DC 55 56 41 54 41  mov r11, rsp; push rbp; push rsi
    0x3b5f0          212   48 89 4C 24 08 53 57 48  mov qword ptr [rsp + 8], rcx; push rbx; push rdi
    0x3b6d0          170   48 89 5C 24 08 57 48 83  mov qword ptr [rsp + 8], rbx; push rdi; sub rsp, 0x20
    0x3b780         3922   48 8B C4 48 89 58 18 48  mov rax, rsp; mov qword ptr [rax + 0x18], rbx; mov qword ptr
    0x3c6e0           12   48 81 C1 78 0B 00 00 E9  add rcx, 0xb78; jmp 0x55520
    0x3c6f0            9   48 83 C1 38 E9 27 8E 01  add rcx, 0x38; jmp 0x55520
    0x3c700           38   40 53 48 83 EC 20 48 8B  push rbx; sub rsp, 0x20; mov rbx, rcx
    0x3c730          136   48 83 EC 28 4C 8B 49 10  sub rsp, 0x28; mov r9, qword ptr [rcx + 0x10]; test r9, r9
    0x3c7c0            9   48 83 C1 10 E9 57 8D 01  add rcx, 0x10; jmp 0x55520
    0x3c7d0         1279   40 55 53 56 57 41 56 41  push rbp; push rbx; push rsi
    0x3ccd0         2329   40 53 41 54 48 83 EC 38  push rbx; push r12; sub rsp, 0x38
    0x3d5f0         1052   48 89 5C 24 10 48 89 6C  mov qword ptr [rsp + 0x10], rbx; mov qword ptr [rsp + 0x18],
    0x3da10          411   48 89 5C 24 08 57 48 83  mov qword ptr [rsp + 8], rbx; push rdi; sub rsp, 0x20
    0x3dbb0          653   48 89 5C 24 08 48 89 6C  mov qword ptr [rsp + 8], rbx; mov qword ptr [rsp + 0x10], rb
    0x3de40          341   48 89 5C 24 08 48 89 6C  mov qword ptr [rsp + 8], rbx; mov qword ptr [rsp + 0x10], rb
    0x3dfa0          418   48 89 5C 24 08 48 89 74  mov qword ptr [rsp + 8], rbx; mov qword ptr [rsp + 0x18], rs
    0x3e142          162   48 8D 87 3C 1D 00 00 8B  lea rax, [rdi + 0x1d3c]; mov ecx, dword ptr [rax]; bt ecx, 0
    0x3e1e4          331   8B 10 85 D2 0F 85 F7 00  mov edx, dword ptr [rax]; test edx, edx; jne 0x3e2e5
    0x3e330          642   48 8B C4 48 89 58 08 48  mov rax, rsp; mov qword ptr [rax + 8], rbx; mov qword ptr [r
    0x3e5b2           89   85 FF 74 56 80 BB E9 26  test edi, edi; je 0x3e60c; cmp byte ptr [rbx + 0x26e9], 0
    0x3e60c           32   80 BB A1 1E 00 00 00 74  cmp byte ptr [rbx + 0x1ea1], 0; je 0x3e625; shr esi, 0xf
    0x3e630          141   40 53 48 83 EC 20 48 8B  push rbx; sub rsp, 0x20; mov rbx, rcx
    0x3e6bd           17   66 FF 42 06 41 FF 81 4C  inc word ptr [rdx + 6]; inc dword ptr [r9 + 0x274c]; add rsp
    0x3e6d0           12   48 8B 05 A1 FE 0D 00 48  mov rax, qword ptr [rip + 0xdfea1]; add rax, 8; ret 
    0x3e6e0           30   48 8B 05 91 FE 0D 00 48  mov rax, qword ptr [rip + 0xdfe91]; mov rcx, qword ptr [rax 
    0x3e700          444   48 89 5C 24 10 48 89 6C  mov qword ptr [rsp + 0x10], rbx; mov qword ptr [rsp + 0x18],
    0x3e8c0          196   48 89 5C 24 08 57 48 83  mov qword ptr [rsp + 8], rbx; push rdi; sub rsp, 0x20
    0x3e990          738   40 53 48 83 EC 20 4C 8B  push rbx; sub rsp, 0x20; mov r11, qword ptr [rip + 0xdfbdb]
    0x3ec80         1151   48 89 5C 24 08 48 89 6C  mov qword ptr [rsp + 8], rbx; mov qword ptr [rsp + 0x10], rb
    0x3f100          548   40 53 48 83 EC 40 48 8B  push rbx; sub rsp, 0x40; mov rbx, qword ptr [rip + 0xdf46b]
    0x3f330         4731   48 8B C4 53 55 57 48 81  mov rax, rsp; push rbx; push rbp
    0x405b0           41   4C 8B 09 4C 8B 12 41 8B  mov r9, qword ptr [rcx]; mov r10, qword ptr [rdx]; mov eax, 
    0x405d9           34   81 E2 00 00 00 02 25 00  and edx, 0x2000000; and eax, 0x2000000; sub eax, edx
    0x40600          214   48 89 7C 24 18 41 56 48  mov qword ptr [rsp + 0x18], rdi; push r14; sub rsp, 0x20
    0x406e0          181   48 89 5C 24 08 48 89 74  mov qword ptr [rsp + 8], rbx; mov qword ptr [rsp + 0x10], rs
    0x407a0          177   40 53 48 83 EC 20 48 8B  push rbx; sub rsp, 0x20; mov rcx, qword ptr [rip + 0xdddcb]
    0x40860          568   F7 C2 00 00 00 FF 0F 84  test edx, 0xff000000; je 0x40a97; mov rax, rsp
    0x40aa0         1113   40 57 48 81 EC 80 00 00  push rdi; sub rsp, 0x80; mov rdi, qword ptr [rip + 0xddac8]
    0x40f00         1051   48 89 5C 24 20 56 48 83  mov qword ptr [rsp + 0x20], rbx; push rsi; sub rsp, 0x20
    0x41320         1116   41 57 48 83 EC 50 4C 8B  push r15; sub rsp, 0x50; mov r15, qword ptr [rip + 0xdd24b]
    0x41780          116   40 53 48 83 EC 40 4C 8B  push rbx; sub rsp, 0x40; mov r11, qword ptr [rip + 0xdcdeb]
    0x417f4          104   F3 0F 10 44 24 70 F3 0F  movss xmm0, dword ptr [rsp + 0x70]; movss xmm3, dword ptr [r
    0x41860          542   41 56 48 83 EC 20 48 89  push r14; sub rsp, 0x20; mov qword ptr [rsp + 0x30], rbx
    0x41a80           38   48 83 EC 28 45 33 C0 33  sub rsp, 0x28; xor r8d, r8d; xor edx, edx
    0x41aa6            7   32 C0 48 83 C4 28 C3     xor al, al; add rsp, 0x28; ret 
    0x41ab0          163   48 89 5C 24 08 48 89 6C  mov qword ptr [rsp + 8], rbx; mov qword ptr [rsp + 0x10], rb
    0x41b60          969   48 89 5C 24 10 48 89 6C  mov qword ptr [rsp + 0x10], rbx; mov qword ptr [rsp + 0x18],
    0x41f30          451   48 89 5C 24 20 57 48 83  mov qword ptr [rsp + 0x20], rbx; push rdi; sub rsp, 0x40
    0x420f3           28   C6 83 BE 12 00 00 00 C7  mov byte ptr [rbx + 0x12be], 0; mov dword ptr [rbx + 0x2650]
    0x42110          121   48 89 5C 24 08 48 8B 05  mov qword ptr [rsp + 8], rbx; mov rax, qword ptr [rip + 0xdc
    0x42189            8   48 8B 5C 24 08 33 C0 C3  mov rbx, qword ptr [rsp + 8]; xor eax, eax; ret 
    0x421a0          183   48 89 5C 24 10 48 89 74  mov qword ptr [rsp + 0x10], rbx; mov qword ptr [rsp + 0x18],
    0x42257          191   84 D2 0F 85 B7 00 00 00  test dl, dl; jne 0x42316; cmp bl, al
    0x42316           22   48 8B 74 24 40 88 99 D4  mov rsi, qword ptr [rsp + 0x40]; mov byte ptr [rcx + 0xd4], 
    0x42330          310   48 8B 05 41 C2 0D 00 0F  mov rax, qword ptr [rip + 0xdc241]; xorps xmm3, xmm3; mov r8
    0x42466           52   0F 2F DA 72 07 C6 81 E2  comiss xmm3, xmm2; jb 0x42472; mov byte ptr [rcx + 0xe2], 2
    0x4249a            9   B0 01 88 81 E4 00 00 00  mov al, 1; mov byte ptr [rcx + 0xe4], al; ret 
    0x424b0          691   40 53 55 56 57 41 54 41  push rbx; push rbp; push rsi
    0x42770          468   48 89 5C 24 10 57 48 83  mov qword ptr [rsp + 0x10], rbx; push rdi; sub rsp, 0x50
    0x42950           82   48 83 EC 08 80 B9 CD 00  sub rsp, 8; cmp byte ptr [rcx + 0xcd], 0; je 0x4296f
    0x429a2          242   F3 0F 10 41 50 0F 57 C9  movss xmm0, dword ptr [rcx + 0x50]; xorps xmm1, xmm1; ucomis
    0x42aa0          704   48 89 5C 24 08 55 56 57  mov qword ptr [rsp + 8], rbx; push rbp; push rsi
    0x42d60          124   48 83 EC 18 F3 0F 10 6A  sub rsp, 0x18; movss xmm5, dword ptr [rdx + 0x28]; xorps xmm
    0x42ddc           56   41 83 F8 01 75 32 0F 28  cmp r8d, 1; jne 0x42e14; movaps xmm0, xmm2
    0x42e14           56   41 83 F8 02 75 32 0F 28  cmp r8d, 2; jne 0x42e4c; movaps xmm0, xmm4
    0x42e4c           56   41 83 F8 03 75 32 0F 28  cmp r8d, 3; jne 0x42e84; movaps xmm0, xmm1
    0x42e84           21   0F 28 34 24 33 C0 48 89  movaps xmm6, xmmword ptr [rsp]; xor eax, eax; mov qword ptr 
    0x42ea0         4003   48 8B C4 4C 89 48 20 4C  mov rax, rsp; mov qword ptr [rax + 0x20], r9; mov qword ptr 
    0x43e43           15   33 C0 48 81 C4 A8 01 00  xor eax, eax; add rsp, 0x1a8; pop r15
    0x43e60          517   4C 8B DC 49 89 5B 10 49  mov r11, rsp; mov qword ptr [r11 + 0x10], rbx; mov qword ptr
    0x44070          570   48 8B C4 48 89 58 20 57  mov rax, rsp; mov qword ptr [rax + 0x20], rbx; push rdi
    0x442b0         1704   48 8B C4 48 89 58 20 55  mov rax, rsp; mov qword ptr [rax + 0x20], rbx; push rbp
    0x44960         1742   48 8B C4 4C 89 40 18 55  mov rax, rsp; mov qword ptr [rax + 0x18], r8; push rbp
    0x45030           99   48 89 5C 24 08 57 48 83  mov qword ptr [rsp + 8], rbx; push rdi; sub rsp, 0x20
    0x450a0          226   4C 8B DC 55 56 57 49 8D  mov r11, rsp; push rbp; push rsi
    0x45183         9675   41 8B CE 81 E1 00 02 03  mov ecx, r14d; and ecx, 0x30200; cmp ecx, 0x30200
    0x47750          180   48 83 EC 18 4C 8B 05 1D  sub rsp, 0x18; mov r8, qword ptr [rip + 0xd6e1d]; mov rax, r
    0x47810         1062   40 53 56 57 48 83 EC 20  push rbx; push rsi; push rdi
    0x47c40          155   48 89 5C 24 08 48 89 7C  mov qword ptr [rsp + 8], rbx; mov qword ptr [rsp + 0x10], rd
    0x47ce0           93   48 89 5C 24 08 57 48 83  mov qword ptr [rsp + 8], rbx; push rdi; sub rsp, 0x20
    0x47d3d           72   4C 8B 97 10 13 00 00 8B  mov r10, qword ptr [rdi + 0x1310]; mov ecx, eax; not ecx
    0x47d90         1219   48 89 5C 24 08 48 89 6C  mov qword ptr [rsp + 8], rbx; mov qword ptr [rsp + 0x10], rb
    0x48260          184   48 8B 15 11 63 0D 00 F3  mov rdx, qword ptr [rip + 0xd6311]; movss xmm0, dword ptr [r
    0x48320          140   48 83 EC 28 4C 8B 0D 4D  sub rsp, 0x28; mov r9, qword ptr [rip + 0xd624d]; movsxd rcx
    0x483b0          165   48 89 5C 24 08 57 48 83  mov qword ptr [rsp + 8], rbx; push rdi; sub rsp, 0x20
    0x48460          108   48 8B 15 11 61 0D 00 0F  mov rdx, qword ptr [rip + 0xd6111]; movzx eax, word ptr [rdx
    0x484d0          132   48 89 5C 24 08 57 48 83  mov qword ptr [rsp + 8], rbx; push rdi; sub rsp, 0x30
    0x48560           67   48 8B 05 11 60 0D 00 48  mov rax, qword ptr [rip + 0xd6011]; mov rdx, qword ptr [rax 
    0x485b0          120   48 8B 15 C1 5F 0D 00 4C  mov rdx, qword ptr [rip + 0xd5fc1]; mov r8, qword ptr [rdx +
    0x48628           30   8B 82 DC 13 00 00 85 C0  mov eax, dword ptr [rdx + 0x13dc]; test eax, eax; je 0x48646
    0x48650           20   48 8B 05 21 5F 0D 00 48  mov rax, qword ptr [rip + 0xd5f21]; mov rcx, qword ptr [rax 
    0x48670           27   48 8B 05 01 5F 0D 00 48  mov rax, qword ptr [rip + 0xd5f01]; mov rdx, qword ptr [rax 
    0x48690          349   4C 8B C9 45 85 C0 74 10  mov r9, rcx; test r8d, r8d; je 0x486a8
    0x487f0           27   48 8B 05 81 5D 0D 00 48  mov rax, qword ptr [rip + 0xd5d81]; mov rdx, qword ptr [rax 
    0x48810          286   4C 8B CA 45 85 C0 74 10  mov r9, rdx; test r8d, r8d; je 0x48828
    0x48930           60   4C 8B 0D 41 5C 0D 00 B8  mov r9, qword ptr [rip + 0xd5c41]; mov eax, 1; or dword ptr 
    0x48970           46   4C 8B 05 01 5C 0D 00 B8  mov r8, qword ptr [rip + 0xd5c01]; mov eax, 1; or dword ptr 
    0x489a0           36   48 8B 0D D1 5B 0D 00 48  mov rcx, qword ptr [rip + 0xd5bd1]; mov rax, qword ptr [rcx 
    0x489d0          112   48 8B 15 A1 5B 0D 00 48  mov rdx, qword ptr [rip + 0xd5ba1]; mov rax, qword ptr [rdx 
    0x48a40          140   48 89 5C 24 08 48 89 74  mov qword ptr [rsp + 8], rbx; mov qword ptr [rsp + 0x18], rs
    0x48ad0          429   48 89 5C 24 18 55 56 57  mov qword ptr [rsp + 0x18], rbx; push rbp; push rsi
    0x48c80          240   48 83 EC 28 4C 8B 0D ED  sub rsp, 0x28; mov r9, qword ptr [rip + 0xd58ed]; mov r10, q
    0x48d70           96   48 89 5C 24 08 48 89 74  mov qword ptr [rsp + 8], rbx; mov qword ptr [rsp + 0x10], rs
    0x48dd0          163   40 53 48 83 EC 20 4C 63  push rbx; sub rsp, 0x20; movsxd r8, dword ptr [rcx + 0x108]
    0x48e80          176   48 89 5C 24 08 48 89 6C  mov qword ptr [rsp + 8], rbx; mov qword ptr [rsp + 0x10], rb
    0x48f30          117   48 89 5C 24 08 57 48 83  mov qword ptr [rsp + 8], rbx; push rdi; sub rsp, 0x20
    0x48fb0           46   48 8B 05 C1 55 0D 00 48  mov rax, qword ptr [rip + 0xd55c1]; mov rcx, qword ptr [rax 
    0x48fe0           85   8B D1 81 E2 FF 0F FF FF  mov edx, ecx; and edx, 0xffff0fff; lea eax, [rdx - 0x20f]
    0x49035            8   B8 00 40 00 00 0B C1 C3  mov eax, 0x4000; or eax, ecx; ret 
    0x4903d            8   B8 00 20 00 00 0B C1 C3  mov eax, 0x2000; or eax, ecx; ret 
    0x49045            8   B8 00 10 00 00 0B C1 C3  mov eax, 0x1000; or eax, ecx; ret 
    0x49050           12   85 C9 75 08 48 8D 05 1D  test ecx, ecx; jne 0x4905c; lea rax, [rip + 0xb481d]
    0x4905c           88   F7 C1 00 F0 00 00 74 3B  test ecx, 0xf000; je 0x4909f; cmp ecx, 0x1000
    0x490b4           19   48 63 C1 48 8D 0D 02 F2  movsxd rax, ecx; lea rcx, [rip + 0xaf202]; mov rax, qword pt
    0x490d0          362   48 89 5C 24 08 48 89 6C  mov qword ptr [rsp + 8], rbx; mov qword ptr [rsp + 0x10], rb
    0x49240          126   48 8B 15 31 53 0D 00 0F  mov rdx, qword ptr [rip + 0xd5331]; movaps xmm3, xmm1; test 
    0x492be            8   0F 2F C8 72 03 33 C0 C3  comiss xmm1, xmm0; jb 0x492c6; xor eax, eax
    0x492c6           21   0F 2F E2 72 10 0F 2F D9  comiss xmm4, xmm2; jb 0x492db; comiss xmm3, xmm1
    0x492db           46   0F 2F D9 B8 FF FF FF FF  comiss xmm3, xmm1; mov eax, 0xffffffff; jbe 0x492e9
    0x49310          489   48 89 5C 24 10 48 89 6C  mov qword ptr [rsp + 0x10], rbx; mov qword ptr [rsp + 0x18],
    0x49500          267   48 89 5C 24 18 48 89 6C  mov qword ptr [rsp + 0x18], rbx; mov qword ptr [rsp + 0x20],
    0x4960b          108   B8 08 00 00 00 3B C1 0F  mov eax, 8; cmp eax, ecx; cmovg ecx, eax
    0x49680           64   48 89 6C 24 10 48 89 74  mov qword ptr [rsp + 0x10], rbp; mov qword ptr [rsp + 0x18],
    0x496c1          668   48 89 5C 24 40 0F BA E6  mov qword ptr [rsp + 0x40], rbx; bt esi, 0x10; jae 0x496da
    0x49960          113   48 83 EC 28 4C 8B 05 0D  sub rsp, 0x28; mov r8, qword ptr [rip + 0xd4c0d]; mov eax, e
    0x499d1            7   32 C0 48 83 C4 28 C3     xor al, al; add rsp, 0x28; ret 
    0x499e0          423   48 83 EC 28 4C 8B 0D 8D  sub rsp, 0x28; mov r9, qword ptr [rip + 0xd4b8d]; mov r11d, 
    0x49b87            7   32 C0 48 83 C4 28 C3     xor al, al; add rsp, 0x28; ret 
    0x49b90          153   48 8B 15 E1 49 0D 00 48  mov rdx, qword ptr [rip + 0xd49e1]; movsxd rax, ecx; cmp byt
    0x49c30           10   45 33 C0 33 D2 E9 06 00  xor r8d, r8d; xor edx, edx; jmp 0x49c40
    0x49c40          105   48 83 EC 28 48 8B 05 2D  sub rsp, 0x28; mov rax, qword ptr [rip + 0xd492d]; movsxd r1
    0x49ca9           67   0F 2F D0 76 07 B9 FF FF  comiss xmm2, xmm0; jbe 0x49cb5; mov ecx, 0xffffffff
    0x49cf0          153   48 8B 15 81 48 0D 00 48  mov rdx, qword ptr [rip + 0xd4881]; movsxd rax, ecx; cmp byt
    0x49d90          186   48 83 EC 28 F2 0F 10 01  sub rsp, 0x28; movsd xmm0, qword ptr [rcx]; movsd xmm1, qwor
    0x49e4a           12   0F 28 74 24 10 32 C0 48  movaps xmm6, xmmword ptr [rsp + 0x10]; xor al, al; add rsp, 
    0x49e60           23   48 8B 05 11 47 0D 00 F2  mov rax, qword ptr [rip + 0xd4711]; movsd xmm0, qword ptr [r
    0x49e80           14   48 8B 05 F1 46 0D 00 89  mov rax, qword ptr [rip + 0xd46f1]; mov dword ptr [rax + 0x2
    0x49e90         1071   48 89 5C 24 08 57 48 83  mov qword ptr [rsp + 8], rbx; push rdi; sub rsp, 0x20
    0x4a2c0          941   48 89 5C 24 10 48 89 74  mov qword ptr [rsp + 0x10], rbx; mov qword ptr [rsp + 0x18],
    0x4a670          216   F3 0F 10 01 45 33 C9 4C  movss xmm0, dword ptr [rcx]; xor r9d, r9d; mov r10, qword pt
    0x4a748          112   4C 3B CA 74 76 48 85 D2  cmp r9, rdx; je 0x4a7c3; test rdx, rdx
    0x4a7b8           11   0F 2F C8 49 0F 47 D1 48  comiss xmm1, xmm0; cmova rdx, r9; mov rax, rdx
    0x4a7c3           11   48 85 D2 49 0F 44 D1 48  test rdx, rdx; cmove rdx, r9; mov rax, rdx
    0x4a7d0         1671   48 89 5C 24 20 56 57 41  mov qword ptr [rsp + 0x20], rbx; push rsi; push rdi
    0x4ae60          195   48 83 EC 58 44 8B 02 4C  sub rsp, 0x58; mov r8d, dword ptr [rdx]; mov r10, rcx
    0x4af23          115   41 83 F8 03 75 6D F6 80  cmp r8d, 3; jne 0x4af96; test byte ptr [rax + 0x26ac], 0x80
    0x4af96          115   41 83 F8 02 75 6D F6 80  cmp r8d, 2; jne 0x4b009; test byte ptr [rax + 0x26ac], 0x80
    0x4b009          156   41 83 F8 04 75 41 F6 80  cmp r8d, 4; jne 0x4b050; test byte ptr [rax + 0x26ac], 0x80
    0x4b0b0         2032   4C 8B DC 53 57 41 54 41  mov r11, rsp; push rbx; push rdi
    0x4b8a0          180   8D 81 00 FE FF FF 3D 99  lea eax, [rcx - 0x200]; cmp eax, 0x99; jbe 0x4b8d1
    0x4b954           30   41 8B 84 88 54 FC FF FF  mov eax, dword ptr [r8 + rcx*4 - 0x3ac]; cmp eax, edx; je 0x
    0x4b980          109   4C 8B 05 F1 2B 0D 00 F7  mov r8, qword ptr [rip + 0xd2bf1]; test ecx, 0xf000; je 0x4b
    0x4b9f0          170   4C 8B 05 81 2B 0D 00 0F  mov r8, qword ptr [rip + 0xd2b81]; bt ecx, 0xc; jae 0x4ba15
    0x4baa0           85   48 83 EC 28 44 8B D2 E8  sub rsp, 0x28; mov r10d, edx; call 0x48fe0
    0x4baf5           33   41 81 F9 00 20 00 00 75  cmp r9d, 0x2000; jne 0x4bb16; mov ecx, 0x297
    0x4bb16           33   41 81 F9 00 40 00 00 75  cmp r9d, 0x4000; jne 0x4bb37; mov ecx, 0x298
    0x4bb37           37   41 81 F9 00 80 00 00 41  cmp r9d, 0x8000; mov ecx, r9d; mov eax, 0x299
    0x4bb5c            7   32 C0 48 83 C4 28 C3     xor al, al; add rsp, 0x28; ret 
    0x4bb70          148   48 89 5C 24 08 48 89 74  mov qword ptr [rsp + 8], rbx; mov qword ptr [rsp + 0x10], rs
    0x4bc04           18   48 8B 5C 24 30 32 C0 48  mov rbx, qword ptr [rsp + 0x30]; xor al, al; mov rsi, qword 
    0x4bc30           17   48 8B 81 90 0B 00 00 48  mov rax, qword ptr [rcx + 0xb90]; mov rcx, qword ptr [rcx + 
    0x4bc50           17   48 8B 81 98 0B 00 00 48  mov rax, qword ptr [rcx + 0xb98]; mov rcx, qword ptr [rcx + 
    0x4bc70         1226   48 89 5C 24 10 48 89 74  mov qword ptr [rsp + 0x10], rbx; mov qword ptr [rsp + 0x18],
    0x4c140          488   48 89 5C 24 08 48 89 6C  mov qword ptr [rsp + 8], rbx; mov qword ptr [rsp + 0x18], rb
    0x4c330          709   48 89 5C 24 10 57 48 83  mov qword ptr [rsp + 0x10], rbx; push rdi; sub rsp, 0x40
    0x4c600          689   48 8B C4 48 89 58 08 48  mov rax, rsp; mov qword ptr [rax + 8], rbx; mov qword ptr [r
    0x4c8c0          557   48 89 5C 24 08 48 89 6C  mov qword ptr [rsp + 8], rbx; mov qword ptr [rsp + 0x10], rb
    0x4caed           56   40 32 F6 85 FF 74 20 3B  xor sil, sil; test edi, edi; je 0x4cb14
    0x4cb30          366   48 83 EC 48 4C 8B 05 3D  sub rsp, 0x48; mov r8, qword ptr [rip + 0xd1a3d]; movaps xmm
    0x4cca0          163   48 8B 05 D1 18 0D 00 0F  mov rax, qword ptr [rip + 0xd18d1]; movaps xmm3, xmm0; mov r
    0x4cd50           30   48 8B 05 21 18 0D 00 48  mov rax, qword ptr [rip + 0xd1821]; mov rdx, qword ptr [rax 
    0x4cd70           36   48 8B 05 01 18 0D 00 48  mov rax, qword ptr [rip + 0xd1801]; mov rcx, qword ptr [rax 
    0x4cda0           36   48 8B 05 D1 17 0D 00 48  mov rax, qword ptr [rip + 0xd17d1]; mov rcx, qword ptr [rax 
    0x4cdd0           87   48 8B 15 A1 17 0D 00 48  mov rdx, qword ptr [rip + 0xd17a1]; mov rax, qword ptr [rdx 
    0x4ce30           61   48 8B 0D 41 17 0D 00 48  mov rcx, qword ptr [rip + 0xd1741]; mov rax, qword ptr [rcx 
    0x4ce70           61   48 8B 0D 01 17 0D 00 48  mov rcx, qword ptr [rip + 0xd1701]; mov rax, qword ptr [rcx 
    0x4ceb0           84   48 8B 0D C1 16 0D 00 0F  mov rcx, qword ptr [rip + 0xd16c1]; xorps xmm1, xmm1; ucomis
    0x4cf10           91   48 8B 0D 61 16 0D 00 0F  mov rcx, qword ptr [rip + 0xd1661]; xorps xmm1, xmm1; ucomis
    0x4cf70           23   48 8B 05 01 16 0D 00 83  mov rax, qword ptr [rip + 0xd1601]; or dword ptr [rax + 0x1d
    0x4cf90          167   48 89 5C 24 08 48 89 74  mov qword ptr [rsp + 8], rbx; mov qword ptr [rsp + 0x10], rs
    0x4d040           67   48 8B 05 31 15 0D 00 48  mov rax, qword ptr [rip + 0xd1531]; mov rdx, qword ptr [rax 
    0x4d090          127   48 8B 0D E1 14 0D 00 F6  mov rcx, qword ptr [rip + 0xd14e1]; test byte ptr [rcx + 0x1
    0x4d110          267   48 83 EC 38 0F 29 74 24  sub rsp, 0x38; movaps xmmword ptr [rsp + 0x20], xmm6; movq x
    0x4d220           84   48 8B 15 51 13 0D 00 48  mov rdx, qword ptr [rip + 0xd1351]; mov rax, qword ptr [rdx 
    0x4d280          315   48 89 5C 24 08 48 89 74  mov qword ptr [rsp + 8], rbx; mov qword ptr [rsp + 0x10], rs
    0x4d3c0         1148   48 8B C4 53 57 48 81 EC  mov rax, rsp; push rbx; push rdi
    0x4d840          480   48 83 EC 38 F2 0F 10 82  sub rsp, 0x38; movsd xmm0, qword ptr [rdx + 0x98]; xorps xmm
    0x4da20         1087   40 53 48 83 EC 50 F3 0F  push rbx; sub rsp, 0x50; movss xmm0, dword ptr [rip + 0xb926
    0x4de60           23   48 8B 05 11 07 0D 00 48  mov rax, qword ptr [rip + 0xd0711]; mov rcx, qword ptr [rax 
    0x4de80           23   48 8B 05 F1 06 0D 00 48  mov rax, qword ptr [rip + 0xd06f1]; mov rcx, qword ptr [rax 
    0x4dea0          145   48 8B 05 D1 06 0D 00 0F  mov rax, qword ptr [rip + 0xd06d1]; movaps xmm4, xmm0; xorps
    0x4df40          451   48 89 5C 24 08 48 89 74  mov qword ptr [rsp + 8], rbx; mov qword ptr [rsp + 0x10], rs
    0x4e110          139   48 89 4C 24 08 48 89 54  mov qword ptr [rsp + 8], rcx; mov qword ptr [rsp + 0x10], rd
    0x4e1a0          163   48 89 4C 24 08 48 89 54  mov qword ptr [rsp + 8], rcx; mov qword ptr [rsp + 0x10], rd
    0x4e250          145   48 89 5C 24 08 48 89 6C  mov qword ptr [rsp + 8], rbx; mov qword ptr [rsp + 0x10], rb
    0x4e2f0          477   4C 8B DC 49 89 5B 08 49  mov r11, rsp; mov qword ptr [r11 + 8], rbx; mov qword ptr [r
    0x4e4d0          527   48 8B C4 53 41 56 48 81  mov rax, rsp; push rbx; push r14
    0x4e6e0          208   48 89 5C 24 08 57 48 83  mov qword ptr [rsp + 8], rbx; push rdi; sub rsp, 0x20
    0x4e7b0          240   48 83 EC 48 48 8B 05 C5  sub rsp, 0x48; mov rax, qword ptr [rip + 0xcb8c5]; xor rax, 
    0x4e8a0           30   C7 82 88 1D 00 00 00 00  mov dword ptr [rdx + 0x1d88], 0; xor al, al; mov rcx, qword 
    0x4e8c0          402   48 89 5C 24 08 48 89 6C  mov qword ptr [rsp + 8], rbx; mov qword ptr [rsp + 0x10], rb
    0x4ea60           95   40 53 48 83 EC 20 48 8B  push rbx; sub rsp, 0x20; mov rbx, qword ptr [rip + 0xcfb0b]
    0x4eac0          488   48 8B C4 48 89 58 08 48  mov rax, rsp; mov qword ptr [rax + 8], rbx; mov qword ptr [r
    0x4eca8          342   0F 28 C2 89 03 0F 14 C1  movaps xmm0, xmm2; mov dword ptr [rbx], eax; unpcklps xmm0, 
    0x4ee00          195   48 83 EC 18 4C 8B 05 6D  sub rsp, 0x18; mov r8, qword ptr [rip + 0xcf76d]; movaps xmm
    0x4eed0          598   48 89 5C 24 08 55 48 8D  mov qword ptr [rsp + 8], rbx; push rbp; lea rbp, [rsp - 0x57
    0x4f126          236   41 80 BA A0 1E 00 00 00  cmp byte ptr [r10 + 0x1ea0], 0; movaps xmm0, xmm6; movss xmm
    0x4f220          148   48 89 5C 24 08 57 48 83  mov qword ptr [rsp + 8], rbx; push rdi; sub rsp, 0x20
    0x4f2b4           18   48 8B 5C 24 30 C6 80 F9  mov rbx, qword ptr [rsp + 0x30]; mov byte ptr [rax + 0x1ef9]
    0x4f2d0          186   48 89 5C 24 08 48 89 6C  mov qword ptr [rsp + 8], rbx; mov qword ptr [rsp + 0x10], rb
    0x4f390          330   48 89 5C 24 08 48 89 6C  mov qword ptr [rsp + 8], rbx; mov qword ptr [rsp + 0x10], rb
    0x4f4e0         1088   48 8B C4 48 81 EC B8 00  mov rax, rsp; sub rsp, 0xb8; mov rdx, qword ptr [rip + 0xcf0
    0x4f920          153   4C 8B 05 51 EC 0C 00 49  mov r8, qword ptr [rip + 0xcec51]; mov rdx, qword ptr [r8 + 
    0x4f9c0          797   48 8B C4 48 89 58 18 57  mov rax, rsp; mov qword ptr [rax + 0x18], rbx; push rdi
    0x4fce0          207   48 83 EC 28 4C 8B 0D 8D  sub rsp, 0x28; mov r9, qword ptr [rip + 0xce88d]; mov r11d, 
    0x4fdaf           14   B0 01 41 88 81 F9 1E 00  mov al, 1; mov byte ptr [r9 + 0x1ef9], al; add rsp, 0x28
    0x4fdbd           29   45 39 99 A4 1E 00 00 0F  cmp dword ptr [r9 + 0x1ea4], r11d; jne 0x4fe84; mov dword pt
    0x4fdda           59   83 F9 FF 75 4A 45 39 99  cmp ecx, -1; jne 0x4fe29; cmp dword ptr [r9 + 0x1ea4], r11d
    0x4fe15          116   84 C0 74 6B 49 8D 89 80  test al, al; je 0x4fe84; lea rcx, [r9 + 0x1f80]
    0x4fe90          394   4C 8B 1D E1 E6 0C 00 45  mov r11, qword ptr [rip + 0xce6e1]; mov r10d, r8d; or r10d, 
    0x5001a            9   41 C6 83 F9 1E 00 00 01  mov byte ptr [r11 + 0x1ef9], 1; ret 
    0x50030          190   48 89 5C 24 08 57 48 83  mov qword ptr [rsp + 8], rbx; push rdi; sub rsp, 0x20
    0x500f0          241   48 89 5C 24 10 57 48 83  mov qword ptr [rsp + 0x10], rbx; push rdi; sub rsp, 0x30
    0x501e1           19   B0 01 88 81 F9 1E 00 00  mov al, 1; mov byte ptr [rcx + 0x1ef9], al; mov rbx, qword p
    0x501f4           33   8B 83 D0 03 00 00 89 87  mov eax, dword ptr [rbx + 0x3d0]; mov dword ptr [rdi + 0x1ea
    0x50220          233   48 83 EC 68 4C 8B 05 4D  sub rsp, 0x68; mov r8, qword ptr [rip + 0xce34d]; mov r9, rc
    0x50309          431   0F 29 74 24 50 0F 29 7C  movaps xmmword ptr [rsp + 0x50], xmm6; movaps xmmword ptr [r
    0x504c0          205   48 83 EC 38 48 8B 05 AD  sub rsp, 0x38; mov rax, qword ptr [rip + 0xce0ad]; movaps xm
    0x50590         2783   4C 8B DC 53 56 57 41 55  mov r11, rsp; push rbx; push rsi
    0x51070         2833   48 8B C4 53 48 81 EC E0  mov rax, rsp; push rbx; sub rsp, 0xe0
    0x51b90         1113   40 53 57 48 83 EC 38 48  push rbx; push rdi; sub rsp, 0x38
    0x51ff0          395   48 89 5C 24 10 57 48 83  mov qword ptr [rsp + 0x10], rbx; push rdi; sub rsp, 0x30
    0x5217b          228   48 8B 93 A8 1E 00 00 48  mov rdx, qword ptr [rbx + 0x1ea8]; mov qword ptr [rsp + 0x40
    0x5225f          147   4C 63 83 60 1E 00 00 45  movsxd r8, dword ptr [rbx + 0x1e60]; test r8d, r8d; jle 0x52
    0x52300          876   48 89 5C 24 08 48 89 6C  mov qword ptr [rsp + 8], rbx; mov qword ptr [rsp + 0x10], rb
    0x5266c          451   45 84 F6 74 09 44 89 BB  test r14b, r14b; je 0x5267a; mov dword ptr [rbx + 0xac], r15
    0x52830          586   40 55 48 8B EC 48 83 EC  push rbp; mov rbp, rsp; sub rsp, 0x10
    0x52a80          332   48 83 EC 08 4C 8B 05 ED  sub rsp, 8; mov r8, qword ptr [rip + 0xcbaed]; movsxd r10, e
    0x52bd0         3081   48 8B C4 53 56 57 48 81  mov rax, rsp; push rbx; push rsi
    0x537e0          835   40 55 48 83 EC 50 48 8B  push rbp; sub rsp, 0x50; mov rbp, qword ptr [rip + 0xcad8b]
    0x53b30          175   40 53 48 83 EC 20 48 8B  push rbx; sub rsp, 0x20; mov rbx, qword ptr [rip + 0xcaa3b]
    0x53be0          196   48 89 5C 24 10 48 89 6C  mov qword ptr [rsp + 0x10], rbx; mov qword ptr [rsp + 0x18],
    0x53cb0           61   48 89 4C 24 08 48 89 54  mov qword ptr [rsp + 8], rcx; mov qword ptr [rsp + 0x10], rd
    0x53cf0          512   48 89 5C 24 08 48 89 6C  mov qword ptr [rsp + 8], rbx; mov qword ptr [rsp + 0x10], rb
    0x53ef0          106   48 8B 0D 81 A6 0C 00 80  mov rcx, qword ptr [rip + 0xca681]; cmp byte ptr [rcx + 0x26
    0x53f60          384   48 89 5C 24 10 48 89 6C  mov qword ptr [rsp + 0x10], rbx; mov qword ptr [rsp + 0x18],
    0x540e0          150   48 83 EC 08 44 0F B6 09  sub rsp, 8; movzx r9d, byte ptr [rcx]; lea r8, [rcx + 1]
    0x54176            8   49 8B C0 48 83 C4 08 C3  mov rax, r8; add rsp, 8; ret 
    0x54180          587   48 89 54 24 10 48 89 4C  mov qword ptr [rsp + 0x10], rdx; mov qword ptr [rsp + 8], rc
    0x543d0          252   48 89 5C 24 08 48 89 6C  mov qword ptr [rsp + 8], rbx; mov qword ptr [rsp + 0x10], rb
    0x544d0          231   48 89 5C 24 08 48 89 6C  mov qword ptr [rsp + 8], rbx; mov qword ptr [rsp + 0x18], rb
    0x545c0           57   48 8B 81 10 13 00 00 48  mov rax, qword ptr [rcx + 0x1310]; movsxd rdx, dword ptr [rc
    0x54600          185   40 53 48 83 EC 20 4D 8B  push rbx; sub rsp, 0x20; mov r10, r8
    0x546b9           23   48 85 C0 74 E7 0F 57 C0  test rax, rax; je 0x546a5; xorps xmm0, xmm0
    0x546d0           84   48 89 5C 24 08 57 48 83  mov qword ptr [rsp + 8], rbx; push rdi; sub rsp, 0x30
    0x54724           68   4C 8D 4C 24 20 48 8B CF  lea r9, [rsp + 0x20]; mov rcx, rdi; lea r8, [rsp + 0x50]
    0x54768           47   4C 8D 44 24 24 48 8B CF  lea r8, [rsp + 0x24]; mov rcx, rdi; lea rdx, [rip + 0xb1c61]
    0x54797           47   4C 8D 44 24 24 48 8B CF  lea r8, [rsp + 0x24]; mov rcx, rdi; lea rdx, [rip + 0xb1c42]
    0x547d0          224   48 89 5C 24 08 57 48 83  mov qword ptr [rsp + 8], rbx; push rdi; sub rsp, 0x20
    0x548b0          696   48 89 5C 24 10 55 56 57  mov qword ptr [rsp + 0x10], rbx; push rbp; push rsi
    0x54b70           43   40 56 57 48 83 EC 48 48  push rsi; push rdi; sub rsp, 0x48
    0x54b9b           44   B9 0D 00 00 00 48 89 5C  mov ecx, 0xd; mov qword ptr [rsp + 0x60], rbx; call qword pt
    0x54bc7          248   48 8B CB 48 89 6C 24 68  mov rcx, rbx; mov qword ptr [rsp + 0x68], rbp; call qword pt
    0x54cc0          201   40 57 48 83 EC 30 33 C9  push rdi; sub rsp, 0x30; xor ecx, ecx
    0x54d90           54   48 83 EC 38 4C 8B C2 C7  sub rsp, 0x38; mov r8, rdx; mov dword ptr [rsp + 0x28], 0xa
    0x54dd0          219   48 89 5C 24 20 56 48 83  mov qword ptr [rsp + 0x20], rbx; push rsi; sub rsp, 0x70
    0x54eb0          254   48 89 4C 24 08 48 89 54  mov qword ptr [rsp + 8], rcx; mov qword ptr [rsp + 0x10], rd
    0x54fb0           37   48 8B C4 53 56 57 48 81  mov rax, rsp; push rbx; push rsi
    0x54fd6          404   0F 10 BF 38 1D 00 00 33  movups xmm7, xmmword ptr [rdi + 0x1d38]; xor esi, esi; lea r
    0x55170          522   48 89 5C 24 20 56 57 41  mov qword ptr [rsp + 0x20], rbx; push rsi; push rdi
    0x55380          412   48 85 C9 0F 84 92 01 00  test rcx, rcx; je 0x5551b; mov qword ptr [rsp + 8], rbx
    0x55520          127   4C 8B 49 08 4D 85 C9 74  mov r9, qword ptr [rcx + 8]; test r9, r9; je 0x5559e
    0x555a0          337   48 89 5C 24 10 48 89 74  mov qword ptr [rsp + 0x10], rbx; mov qword ptr [rsp + 0x18],
    0x55700          170   48 89 5C 24 08 57 48 83  mov qword ptr [rsp + 8], rbx; push rdi; sub rsp, 0x20
    0x557b0           36   40 53 48 83 EC 20 48 8B  push rbx; sub rsp, 0x20; mov rbx, rcx
    0x557e0          210   48 89 5C 24 08 48 89 6C  mov qword ptr [rsp + 8], rbx; mov qword ptr [rsp + 0x10], rb
    0x558c0          278   40 53 41 57 48 83 EC 28  push rbx; push r15; sub rsp, 0x28
    0x559e0           36   40 53 48 83 EC 20 48 8B  push rbx; sub rsp, 0x20; mov rbx, rcx
    0x55a10          261   48 89 5C 24 20 41 56 48  mov qword ptr [rsp + 0x20], rbx; push r14; sub rsp, 0x20
    0x55b20           36   40 53 48 83 EC 20 48 8B  push rbx; sub rsp, 0x20; mov rbx, rcx
    0x55b50          289   48 89 5C 24 10 48 89 7C  mov qword ptr [rsp + 0x10], rbx; mov qword ptr [rsp + 0x18],
    0x55c80          365   40 55 41 56 41 57 48 83  push rbp; push r14; push r15
    0x55df0          270   48 89 5C 24 18 57 48 83  mov qword ptr [rsp + 0x18], rbx; push rdi; sub rsp, 0x20
    0x55efe           18   48 8B 74 24 38 89 3B 48  mov rsi, qword ptr [rsp + 0x38]; mov dword ptr [rbx], edi; m
    0x55f10           13   89 3B 48 8B 5C 24 40 48  mov dword ptr [rbx], edi; mov rbx, qword ptr [rsp + 0x40]; a
    0x55f20          312   48 89 5C 24 10 48 89 6C  mov qword ptr [rsp + 0x10], rbx; mov qword ptr [rsp + 0x18],
    0x56060          310   48 89 5C 24 10 48 89 6C  mov qword ptr [rsp + 0x10], rbx; mov qword ptr [rsp + 0x18],
    0x561a0          270   48 89 5C 24 18 57 48 83  mov qword ptr [rsp + 0x18], rbx; push rdi; sub rsp, 0x20
    0x562ae           18   48 8B 74 24 38 89 3B 48  mov rsi, qword ptr [rsp + 0x38]; mov dword ptr [rbx], edi; m
    0x562c0           13   89 3B 48 8B 5C 24 40 48  mov dword ptr [rbx], edi; mov rbx, qword ptr [rsp + 0x40]; a
    0x562d0          222   48 89 5C 24 10 57 48 83  mov qword ptr [rsp + 0x10], rbx; push rdi; sub rsp, 0x20
    0x563b0          250   48 89 5C 24 18 57 48 83  mov qword ptr [rsp + 0x18], rbx; push rdi; sub rsp, 0x20
    0x564aa           18   48 8B 74 24 38 89 3B 48  mov rsi, qword ptr [rsp + 0x38]; mov dword ptr [rbx], edi; m
    0x564bc           13   89 3B 48 8B 5C 24 40 48  mov dword ptr [rbx], edi; mov rbx, qword ptr [rsp + 0x40]; a
    0x564d0          227   48 89 5C 24 10 57 48 83  mov qword ptr [rsp + 0x10], rbx; push rdi; sub rsp, 0x20
    0x565c0          193   48 89 5C 24 08 48 89 6C  mov qword ptr [rsp + 8], rbx; mov qword ptr [rsp + 0x10], rb
    0x56690          214   48 89 5C 24 10 57 48 83  mov qword ptr [rsp + 0x10], rbx; push rdi; sub rsp, 0x20
    0x56770          220   48 89 5C 24 10 57 48 83  mov qword ptr [rsp + 0x10], rbx; push rdi; sub rsp, 0x20
    0x56850         1621   48 89 5C 24 08 48 89 74  mov qword ptr [rsp + 8], rbx; mov qword ptr [rsp + 0x10], rs
    0x56eb0          170   48 89 5C 24 08 57 48 83  mov qword ptr [rsp + 8], rbx; push rdi; sub rsp, 0x20
    0x56f60          170   48 89 5C 24 08 57 48 83  mov qword ptr [rsp + 8], rbx; push rdi; sub rsp, 0x20
    0x57010          219   48 89 5C 24 10 57 48 83  mov qword ptr [rsp + 0x10], rbx; push rdi; sub rsp, 0x20
    0x570f0          219   48 89 5C 24 10 57 48 83  mov qword ptr [rsp + 0x10], rbx; push rdi; sub rsp, 0x20
    0x571d0          227   48 89 5C 24 10 57 48 83  mov qword ptr [rsp + 0x10], rbx; push rdi; sub rsp, 0x20
    0x572c0          222   48 89 5C 24 10 57 48 83  mov qword ptr [rsp + 0x10], rbx; push rdi; sub rsp, 0x20
    0x573a0          222   48 89 5C 24 10 57 48 83  mov qword ptr [rsp + 0x10], rbx; push rdi; sub rsp, 0x20
    0x57480          125   48 89 5C 24 08 57 48 83  mov qword ptr [rsp + 8], rbx; push rdi; sub rsp, 0x20
    0x57500          222   48 89 5C 24 10 57 48 83  mov qword ptr [rsp + 0x10], rbx; push rdi; sub rsp, 0x20
    0x575e0          544   48 89 5C 24 10 48 89 6C  mov qword ptr [rsp + 0x10], rbx; mov qword ptr [rsp + 0x18],
    0x57800          919   44 89 4C 24 20 48 89 54  mov dword ptr [rsp + 0x20], r9d; mov qword ptr [rsp + 0x10],
    0x57b97           20   48 89 31 48 8B C1 48 89  mov qword ptr [rcx], rsi; mov rax, rcx; mov qword ptr [rcx +
    0x57bb0           19   8B 42 08 4C 8B C9 39 41  mov eax, dword ptr [rdx + 8]; mov r9, rcx; cmp dword ptr [rc
    0x57bc3           17   8B 4A 04 41 8B 51 04 3B  mov ecx, dword ptr [rdx + 4]; mov edx, dword ptr [r9 + 4]; c
    0x57bd4            8   33 C0 3B D1 0F 9C C0 C3  xor eax, eax; cmp edx, ecx; setl al
    0x57be0           18   44 8B 42 14 8B 51 14 41  mov r8d, dword ptr [rdx + 0x14]; mov edx, dword ptr [rcx + 0
    0x57bf2            9   33 C0 41 3B D0 0F 9F C0  xor eax, eax; cmp edx, r8d; setg al
    0x57c00          517   48 89 54 24 10 41 55 41  mov qword ptr [rsp + 0x10], rdx; push r13; push r15
    0x57e10          276   48 89 5C 24 08 48 89 7C  mov qword ptr [rsp + 8], rbx; mov qword ptr [rsp + 0x10], rd
    0x57f30           63   48 83 EC 08 4C 63 41 08  sub rsp, 8; movsxd r8, dword ptr [rcx + 8]; mov r9, rcx
    0x57f6f           36   8D 82 09 FF FF FF 83 F8  lea eax, [rdx - 0xf7]; cmp eax, 3; ja 0x57fb7
    0x57f93           36   49 8B 01 49 63 C8 C1 E2  mov rax, qword ptr [r9]; movsxd rcx, r8d; shl edx, 8
    0x57fb7           38   8D 82 05 FF FF FF 83 F8  lea eax, [rdx - 0xfb]; cmp eax, 3; ja 0x58003
    0x57fdd           38   49 8B 01 49 63 C8 C1 E2  mov rax, qword ptr [r9]; movsxd rcx, r8d; shl edx, 8
    0x58003           30   83 FA 1C 75 5D 45 3B C2  cmp edx, 0x1c; jne 0x58065; cmp r8d, r10d
    0x58021           37   49 8B 01 49 63 C8 41 FF  mov rax, qword ptr [r9]; movsxd rcx, r8d; inc r8d
    0x58046           31   49 8B 09 49 63 D0 C1 E0  mov rcx, qword ptr [r9]; movsxd rdx, r8d; shl eax, 8
    0x58065           51   83 FA 1D 0F 85 E5 00 00  cmp edx, 0x1d; jne 0x58153; mov qword ptr [rsp], rbx
    0x58098           55   49 8B 01 45 8D 58 01 49  mov rax, qword ptr [r9]; lea r11d, [r8 + 1]; movsxd rcx, r8d
    0x580cf           51   49 63 CB 41 FF C3 41 C1  movsxd rcx, r11d; inc r11d; shl r8d, 8
    0x58102           47   49 63 CB 41 FF C3 41 C1  movsxd rcx, r11d; inc r11d; shl r8d, 8
    0x58131           34   48 8B 1C 24 41 8D 4B 01  mov rbx, qword ptr [rsp]; lea ecx, [r11 + 1]; movsxd rdx, r1
    0x58153            7   33 C0 48 83 C4 08 C3     xor eax, eax; add rsp, 8; ret 
    0x58160          315   48 89 5C 24 08 48 89 6C  mov qword ptr [rsp + 8], rbx; mov qword ptr [rsp + 0x10], rb
    0x5829b           41   2B D6 4C 89 37 4C 89 77  sub edx, esi; mov qword ptr [rdi], r14; mov qword ptr [rdi +
    0x582d0          337   40 53 44 8B 4A 0C 45 33  push rbx; mov r9d, dword ptr [rdx + 0xc]; xor r11d, r11d
    0x58430          248   0F B6 01 4C 8B C1 3C 31  movzx eax, byte ptr [rcx]; mov r8, rcx; cmp al, 0x31
    0x58528           72   3C 4F 75 19 80 79 01 54  cmp al, 0x4f; jne 0x58545; cmp byte ptr [rcx + 1], 0x54
    0x58570            6   B8 FF FF FF FF C3        mov eax, 0xffffffff; ret 
    0x58580          325   48 89 5C 24 10 48 89 6C  mov qword ptr [rsp + 0x10], rbx; mov qword ptr [rsp + 0x18],
    0x586d0          766   44 89 44 24 18 55 53 56  mov dword ptr [rsp + 0x18], r8d; push rbp; push rbx
    0x589ce         1745   44 0F B6 69 09 8B D3 0F  movzx r13d, byte ptr [rcx + 9]; mov edx, ebx; movzx eax, byt
    0x590a0          864   48 89 5C 24 10 48 89 6C  mov qword ptr [rsp + 0x10], rbx; mov qword ptr [rsp + 0x18],
    0x59400           53   0F B6 54 19 19 0F B6 44  movzx edx, byte ptr [rcx + rbx + 0x19]; movzx eax, byte ptr 
    0x59440          201   3B 51 14 0F 8D C0 00 00  cmp edx, dword ptr [rcx + 0x14]; jge 0x59509; mov eax, dword
    0x59509            6   B8 FF FF FF FF C3        mov eax, 0xffffffff; ret 
    0x59510          151   48 83 EC 08 4C 63 D2 4C  sub rsp, 8; movsxd r10, edx; mov r11, rcx
    0x595a7           67   0F B7 44 24 30 49 6B CA  movzx eax, word ptr [rsp + 0x30]; imul rcx, r10, 0xe; mov wo
    0x595ea           22   33 C0 42 C6 44 19 0C 02  xor eax, eax; mov byte ptr [rcx + r11 + 0xc], 2; mov dword p
    0x59600         3673   48 8B C4 48 89 58 10 4C  mov rax, rsp; mov qword ptr [rax + 0x10], rbx; mov qword ptr
    0x5a460          276   40 55 83 39 00 0F B6 EA  push rbp; cmp dword ptr [rcx], 0; movzx ebp, dl
    0x5a574           66   48 63 41 30 48 6B D0 0E  movsxd rax, dword ptr [rcx + 0x30]; imul rdx, rax, 0xe; movz
    0x5a5c0          172   48 89 5C 24 08 48 89 6C  mov qword ptr [rsp + 8], rbx; mov qword ptr [rsp + 0x10], rb
    0x5a670          481   48 89 5C 24 08 48 89 6C  mov qword ptr [rsp + 8], rbx; mov qword ptr [rsp + 0x10], rb
    0x5a860          914   48 8B C4 48 89 58 20 55  mov rax, rsp; mov qword ptr [rax + 0x20], rbx; push rbp
    0x5abf2         3584   83 FE 01 7C 97 F3 0F 10  cmp esi, 1; jl 0x5ab8e; movss xmm0, dword ptr [rbx + 0x14]
    0x5b9f2           84   05 00 44 C4 05 00 13 C8  add eax, 0x5c44400; add byte ptr [rbx], dl; enter 5, 0x79
    0x5ba50          330   48 89 6C 24 10 48 89 74  mov qword ptr [rsp + 0x10], rbp; mov qword ptr [rsp + 0x18],
    0x5bba0          221   48 83 EC 38 F3 0F 10 6C  sub rsp, 0x38; movss xmm5, dword ptr [rsp + 0x60]; movss xmm
    0x5bc7d           99   8D 42 01 66 0F 6E C8 0F  lea eax, [rdx + 1]; movd xmm1, eax; cvtdq2ps xmm1, xmm1
    0x5bce0         1609   4D 85 C9 0F 84 3F 06 00  test r9, r9; je 0x5c328; mov rax, rsp
    0x5c330         1407   4C 8B DC 56 48 81 EC 30  mov r11, rsp; push rsi; sub rsp, 0x330
    0x5c8b0          462   83 FA 0C 0F 8E C4 01 00  cmp edx, 0xc; jle 0x5ca7d; mov qword ptr [rsp + 0x18], rsi
    0x5ca80         1128   40 53 57 41 54 41 55 41  push rbx; push rdi; push r12
    0x5cee8           26   48 83 C2 FD E9 19 FF FF  add rdx, -3; jmp 0x5ce0a; add rdx, -2
    0x5cf10          491   48 8B C4 48 89 58 08 48  mov rax, rsp; mov qword ptr [rax + 8], rbx; mov qword ptr [r
    0x5d100         1180   48 8B C4 48 89 58 08 48  mov rax, rsp; mov qword ptr [rax + 8], rbx; mov qword ptr [r
    0x5d5a0         1080   48 89 4C 24 08 53 55 56  mov qword ptr [rsp + 8], rcx; push rbx; push rbp
    0x5d9e0          477   4C 8B DC 49 89 6B 08 49  mov r11, rsp; mov qword ptr [r11 + 8], rbp; mov qword ptr [r
    0x5dbc0          682   48 8B C4 48 89 58 10 48  mov rax, rsp; mov qword ptr [rax + 0x10], rbx; mov qword ptr
    0x5de70          535   48 89 5C 24 08 48 89 6C  mov qword ptr [rsp + 8], rbx; mov qword ptr [rsp + 0x10], rb
    0x5e090          274   48 89 5C 24 08 57 48 83  mov qword ptr [rsp + 8], rbx; push rdi; sub rsp, 0x20
    0x5e1b0          681   45 85 C0 0F 8E 9F 02 00  test r8d, r8d; jle 0x5e458; push rbx
    0x5e460          661   85 D2 0F 8E 8C 02 00 00  test edx, edx; jle 0x5e6f4; push rbx
    0x5e700         1741   48 8B C4 44 89 48 20 48  mov rax, rsp; mov dword ptr [rax + 0x20], r9d; mov qword ptr
    0x5edd0         2488   48 83 EC 28 0F 29 74 24  sub rsp, 0x28; movaps xmmword ptr [rsp + 0x10], xmm6; movaps
    0x5f790          402   48 89 5C 24 08 48 89 6C  mov qword ptr [rsp + 8], rbx; mov qword ptr [rsp + 0x10], rb
    0x5f930          566   48 89 5C 24 08 57 48 83  mov qword ptr [rsp + 8], rbx; push rdi; sub rsp, 0x20
    0x5fb70          174   48 89 5C 24 10 48 89 6C  mov qword ptr [rsp + 0x10], rbx; mov qword ptr [rsp + 0x18],
    0x5fc20          167   48 89 5C 24 08 48 89 6C  mov qword ptr [rsp + 8], rbx; mov qword ptr [rsp + 0x10], rb
    0x5fcd0           47   48 83 EC 28 0F 28 C1 0F  sub rsp, 0x28; movaps xmm0, xmm1; movaps xmm2, xmm1
    0x5fcff           82   48 8B 41 38 F3 0F 10 05  mov rax, qword ptr [rcx + 0x38]; movss xmm0, dword ptr [rip 
    0x5fd51           15   B9 00 02 00 00 3B C1 0F  mov ecx, 0x200; cmp eax, ecx; cmovg eax, ecx
    0x5fd60          237   48 89 5C 24 08 57 48 83  mov qword ptr [rsp + 8], rbx; push rdi; sub rsp, 0x30
    0x5fe50          124   48 89 5C 24 08 48 89 74  mov qword ptr [rsp + 8], rbx; mov qword ptr [rsp + 0x10], rs
    0x5fed0          271   48 89 5C 24 08 48 89 6C  mov qword ptr [rsp + 8], rbx; mov qword ptr [rsp + 0x10], rb
    0x5ffe0          334   40 53 48 83 EC 40 48 8B  push rbx; sub rsp, 0x40; mov rax, qword ptr [rcx + 0x48]
    0x60130         3866   4C 8B DC 45 89 4B 20 53  mov r11, rsp; mov dword ptr [r11 + 0x20], r9d; push rbx
    0x61050         1415   41 83 F8 03 0F 8C 7C 05  cmp r8d, 3; jl 0x615d6; mov r11, rsp
    0x615e0          136   40 53 55 41 56 41 57 48  push rbx; push rbp; push r14
    0x61668          586   48 89 74 24 60 0F 28 CE  mov qword ptr [rsp + 0x60], rsi; movaps xmm1, xmm6; mov qwor
    0x618c0          457   48 89 5C 24 18 56 41 56  mov qword ptr [rsp + 0x18], rbx; push rsi; push r14
    0x61a90          110   40 57 48 83 EC 30 F3 0F  push rdi; sub rsp, 0x30; movss xmm0, dword ptr [rip + 0xa519
    0x61afe           34   8B 44 24 60 46 8D 0C 8D  mov eax, dword ptr [rsp + 0x60]; lea r9d, [r9*4]; lea eax, [
    0x61b20          924   40 53 57 41 56 41 57 48  push rbx; push rdi; push r14
    0x61ebc          118   F3 44 0F 10 84 24 E0 00  movss xmm8, dword ptr [rsp + 0xe0]; movaps xmm1, xmm9; movss
    0x61f40          463   48 8B C4 48 89 58 10 48  mov rax, rsp; mov qword ptr [rax + 0x10], rbx; mov qword ptr
    0x62110          573   40 53 41 56 41 57 48 83  push rbx; push r14; push r15
    0x6234d          396   8B 4B 54 44 8B 43 50 48  mov ecx, dword ptr [rbx + 0x54]; mov r8d, dword ptr [rbx + 0
    0x624e0          340   41 F7 C1 00 00 00 FF 0F  test r9d, 0xff000000; je 0x62633; mov qword ptr [rsp + 0x18]
    0x62640          239   41 F7 C1 00 00 00 FF 0F  test r9d, 0xff000000; je 0x6272e; mov rax, rsp
    0x62730          420   41 F7 C1 00 00 00 FF 0F  test r9d, 0xff000000; je 0x628d3; mov qword ptr [rsp + 8], r
    0x628e0          462   48 89 5C 24 08 48 89 6C  mov qword ptr [rsp + 8], rbx; mov qword ptr [rsp + 0x10], rb
    0x62ab0          316   48 89 74 24 18 41 54 41  mov qword ptr [rsp + 0x18], rsi; push r12; push r14
    0x62bf0          215   41 F7 C1 00 00 00 FF 0F  test r9d, 0xff000000; je 0x62cc6; mov qword ptr [rsp + 8], r
    0x62cd0          187   41 F7 C1 00 00 00 FF 0F  test r9d, 0xff000000; je 0x62d8a; mov qword ptr [rsp + 8], r
    0x62d90          155   41 F7 C1 00 00 00 FF 0F  test r9d, 0xff000000; je 0x62e2a; mov qword ptr [rsp + 8], r
    0x62e30          128   41 F7 C1 00 00 00 FF 74  test r9d, 0xff000000; je 0x62eaf; mov qword ptr [rsp + 8], r
    0x62eb0          279   48 83 EC 68 4C 8B DA 8B  sub rsp, 0x68; mov r11, rdx; mov edx, dword ptr [rsp + 0x90]
    0x62fd0          124   48 83 EC 68 4C 8B D2 48  sub rsp, 0x68; mov r10, rdx; mov rdx, rcx
    0x63050          199   48 89 5C 24 10 48 89 6C  mov qword ptr [rsp + 0x10], rbx; mov qword ptr [rsp + 0x18],
    0x63120          136   48 89 6C 24 10 48 89 74  mov qword ptr [rsp + 0x10], rbp; mov qword ptr [rsp + 0x18],
    0x631b0          311   40 53 55 56 57 41 56 48  push rbx; push rbp; push rsi
    0x632f0          855   41 55 41 56 48 83 EC 48  push r13; push r14; sub rsp, 0x48
    0x63647           40   41 B8 1C 00 00 00 E8 4E  mov r8d, 0x1c; call 0xb54a0; test eax, eax
    0x63670          178   40 53 48 83 EC 20 48 63  push rbx; sub rsp, 0x20; movsxd rax, dword ptr [rcx]
    0x63722           34   41 B8 1C 00 00 00 E8 73  mov r8d, 0x1c; call 0xb54a0; test eax, eax
    0x63750          234   48 89 5C 24 08 48 89 74  mov qword ptr [rsp + 8], rbx; mov qword ptr [rsp + 0x10], rs
    0x63840          600   48 89 5C 24 08 48 89 6C  mov qword ptr [rsp + 8], rbx; mov qword ptr [rsp + 0x10], rb
    0x63aa0          287   48 89 5C 24 08 57 48 83  mov qword ptr [rsp + 8], rbx; push rdi; sub rsp, 0x20
    0x63bc0          584   4C 8B DC 55 53 56 48 8D  mov r11, rsp; push rbp; push rbx
    0x63e10          545   40 53 55 57 41 54 48 83  push rbx; push rbp; push rdi
    0x64040          673   48 8B C4 55 41 54 41 56  mov rax, rsp; push rbp; push r12
    0x642f0          482   48 89 5C 24 08 48 89 6C  mov qword ptr [rsp + 8], rbx; mov qword ptr [rsp + 0x10], rb
    0x644e0         5757   48 8B C4 48 89 58 10 48  mov rax, rsp; mov qword ptr [rax + 0x10], rbx; mov qword ptr
    0x65b60          413   48 89 5C 24 08 48 89 6C  mov qword ptr [rsp + 8], rbx; mov qword ptr [rsp + 0x10], rb
    0x65d00          155   48 89 5C 24 08 48 89 74  mov qword ptr [rsp + 8], rbx; mov qword ptr [rsp + 0x10], rs
    0x65da0          142   48 89 5C 24 08 48 89 7C  mov qword ptr [rsp + 8], rbx; mov qword ptr [rsp + 0x10], rd
    0x65e30          331   48 89 5C 24 08 48 89 6C  mov qword ptr [rsp + 8], rbx; mov qword ptr [rsp + 0x10], rb
    0x65f80          494   48 8B C4 41 55 48 83 EC  mov rax, rsp; push r13; sub rsp, 0x60
    0x66170          293   48 89 5C 24 08 57 48 83  mov qword ptr [rsp + 8], rbx; push rdi; sub rsp, 0x20
    0x662a0          204   48 89 5C 24 08 57 48 83  mov qword ptr [rsp + 8], rbx; push rdi; sub rsp, 0x20
    0x66370         1280   48 8B C4 53 48 83 EC 50  mov rax, rsp; push rbx; sub rsp, 0x50
    0x66870           48   48 8B 43 20 0F B7 14 48  mov rax, qword ptr [rbx + 0x20]; movzx edx, word ptr [rax + 
    0x668a0          111   66 41 3B D3 74 63 48 63  cmp dx, r11w; je 0x66909; movsxd rax, dword ptr [rbx + 0x18]
    0x66910          270   48 89 5C 24 18 56 48 83  mov qword ptr [rsp + 0x18], rbx; push rsi; sub rsp, 0x20
    0x66a20          522   48 89 5C 24 08 48 89 74  mov qword ptr [rsp + 8], rbx; mov qword ptr [rsp + 0x10], rs
    0x66c30          364   48 89 5C 24 10 48 89 6C  mov qword ptr [rsp + 0x10], rbx; mov qword ptr [rsp + 0x18],
    0x66da0          599   48 8B C4 53 57 48 81 EC  mov rax, rsp; push rbx; push rdi
    0x67000          426   48 89 5C 24 18 56 48 81  mov qword ptr [rsp + 0x18], rbx; push rsi; sub rsp, 0x80
    0x671b0         1743   48 8B C4 48 89 50 10 53  mov rax, rsp; mov qword ptr [rax + 0x10], rdx; push rbx
    0x67880          440   48 81 EC 88 00 00 00 48  sub rsp, 0x88; mov rax, qword ptr [rcx + 0x38]; mov r10, rcx
    0x67a40          132   41 F7 C0 00 00 00 FF 74  test r8d, 0xff000000; je 0x67ac3; mov qword ptr [rsp + 8], r
    0x67ad0          540   48 89 5C 24 18 55 56 57  mov qword ptr [rsp + 0x18], rbx; push rbp; push rsi
    0x67cf0         1695   40 55 57 41 54 41 57 48  push rbp; push rdi; push r12
    0x68390          105   48 89 5C 24 08 57 48 83  mov qword ptr [rsp + 8], rbx; push rdi; sub rsp, 0x20
    0x683f9           37   48 3B 15 38 AB 30 00 73  cmp rdx, qword ptr [rip + 0x30ab38]; jae 0x6841e; inc rax
    0x6841e           61   45 85 C0 74 26 0F 1F 40  test r8d, r8d; je 0x68449; nop dword ptr [rax]
    0x6845b           94   80 FA 40 0F 82 A7 00 00  cmp dl, 0x40; jb 0x6850b; movzx r8d, byte ptr [rcx + 2]
    0x684b9           37   48 3B 15 78 AA 30 00 73  cmp rdx, qword ptr [rip + 0x30aa78]; jae 0x684e0; inc rax
    0x684de           45   66 90 0F B6 02 48 8D 52  nop ; movzx eax, byte ptr [rdx]; lea rdx, [rdx + 1]
    0x6850b           83   48 8B 0D 2E AA 30 00 8D  mov rcx, qword ptr [rip + 0x30aa2e]; lea eax, [rdx - 0x1f]; 
    0x6855e          105   80 FA 18 0F 82 B5 00 00  cmp dl, 0x18; jb 0x6861c; movzx r9d, byte ptr [rcx + 3]
    0x685c7           37   4C 3B 05 6A A9 30 00 73  cmp r8, qword ptr [rip + 0x30a96a]; jae 0x685f0; inc rax
    0x685ec           48   0F 1F 40 00 41 0F B6 00  nop dword ptr [rax]; movzx eax, byte ptr [r8]; lea r8, [r8 +
    0x6861c          114   80 FA 10 0F 82 BA 00 00  cmp dl, 0x10; jb 0x686df; movzx ecx, byte ptr [rcx + 3]
    0x6868e           37   4C 3B 05 A3 A8 30 00 73  cmp r8, qword ptr [rip + 0x30a8a3]; jae 0x686b3; inc rax
    0x686b3           44   41 0F B6 00 4D 8D 40 01  movzx eax, byte ptr [r8]; lea r8, [r8 + 1]; mov byte ptr [rd
    0x686df          125   80 FA 08 72 78 44 0F B6  cmp dl, 8; jb 0x6875c; movzx r8d, byte ptr [rbx + 1]
    0x6875c          114   80 FA 07 75 6D 44 0F B6  cmp dl, 7; jne 0x687ce; movzx r8d, byte ptr [rbx + 2]
    0x687ce          102   80 FA 06 0F 85 B5 00 00  cmp dl, 6; jne 0x6888c; movzx r9d, byte ptr [rcx + 4]
    0x68834           37   4C 3B 05 FD A6 30 00 73  cmp r8, qword ptr [rip + 0x30a6fd]; jae 0x68860; inc rax
    0x68859           51   0F 1F 80 00 00 00 00 41  nop dword ptr [rax]; movzx eax, byte ptr [r8]; lea r8, [r8 +
    0x6888c          111   80 FA 04 0F 85 A9 00 00  cmp dl, 4; jne 0x6893e; movzx ecx, byte ptr [rcx + 4]
    0x688fb           37   4C 3B 05 36 A6 30 00 73  cmp r8, qword ptr [rip + 0x30a636]; jae 0x68920; inc rax
    0x68920           44   41 0F B6 00 4D 8D 40 01  movzx eax, byte ptr [r8]; lea r8, [r8 + 1]; mov byte ptr [rd
    0x68950          278   48 89 5C 24 18 57 48 83  mov qword ptr [rsp + 0x18], rbx; push rdi; sub rsp, 0x20
    0x68a66           18   48 8B 74 24 38 89 3B 48  mov rsi, qword ptr [rsp + 0x38]; mov dword ptr [rbx], edi; m
    0x68a78           13   89 3B 48 8B 5C 24 40 48  mov dword ptr [rbx], edi; mov rbx, qword ptr [rsp + 0x40]; a
    0x68a90          266   48 89 5C 24 10 48 89 74  mov qword ptr [rsp + 0x10], rbx; mov qword ptr [rsp + 0x18],
    0x68b9a           19   89 33 48 8B 5C 24 38 48  mov dword ptr [rbx], esi; mov rbx, qword ptr [rsp + 0x38]; m
    0x68bb0          380   48 89 5C 24 10 48 89 74  mov qword ptr [rsp + 0x10], rbx; mov qword ptr [rsp + 0x18],
    0x68d30          301   48 89 5C 24 10 48 89 6C  mov qword ptr [rsp + 0x10], rbx; mov qword ptr [rsp + 0x18],
    0x68e60          181   48 89 5C 24 08 57 48 83  mov qword ptr [rsp + 8], rbx; push rdi; sub rsp, 0x20
    0x68f20          222   48 89 5C 24 10 57 48 83  mov qword ptr [rsp + 0x10], rbx; push rdi; sub rsp, 0x20
    0x69000          244   48 89 5C 24 08 8B 41 04  mov qword ptr [rsp + 8], rbx; mov eax, dword ptr [rcx + 4]; 
    0x69100         4844   48 8B C4 53 56 57 48 81  mov rax, rsp; push rbx; push rsi
    0x6a3ec          158   F3 0F 10 80 20 02 00 00  movss xmm0, dword ptr [rax + 0x220]; lea rbx, [rsi + 0x98]; 
    0x6a490          869   48 8B C4 57 41 55 41 57  mov rax, rsp; push rdi; push r13
    0x6a800         2484   48 8B C4 48 89 58 10 48  mov rax, rsp; mov qword ptr [rax + 0x10], rbx; mov qword ptr
    0x6b1c0         2086   48 8B C4 55 53 48 8D 68  mov rax, rsp; push rbp; push rbx
    0x6b9f0          236   48 63 41 74 4C 8B 89 88  movsxd rax, dword ptr [rcx + 0x74]; mov r9, qword ptr [rcx +
    0x6bae0          189   48 8B 05 91 2A 0B 00 48  mov rax, qword ptr [rip + 0xb2a91]; mov rcx, qword ptr [rax 
    0x6bba0          184   48 8B 05 D1 29 0B 00 48  mov rax, qword ptr [rip + 0xb29d1]; mov rcx, qword ptr [rax 
    0x6bc60          383   48 89 5C 24 08 48 89 6C  mov qword ptr [rsp + 8], rbx; mov qword ptr [rsp + 0x10], rb
    0x6bde0         2368   48 8B C4 48 89 58 10 48  mov rax, rsp; mov qword ptr [rax + 0x10], rbx; mov qword ptr
    0x6c720          105   48 83 EC 38 0F BF 81 12  sub rsp, 0x38; movsx eax, word ptr [rcx + 0x212]; mov r9d, r
    0x6c789           42   0F BF 91 2C 02 00 00 33  movsx edx, word ptr [rcx + 0x22c]; xor eax, eax; inc r8d
    0x6c7b3           11   8B 81 A4 00 00 00 48 83  mov eax, dword ptr [rcx + 0xa4]; add rsp, 0x38; ret 
    0x6c7c0         1392   40 55 53 57 48 8D 6C 24  push rbp; push rbx; push rdi
    0x6cd30          412   40 53 55 56 48 83 EC 10  push rbx; push rbp; push rsi
    0x6cecc          144   39 5A 6C 7E 23 48 8B CB  cmp dword ptr [rdx + 0x6c], ebx; jle 0x6cef4; mov rcx, rbx
    0x6cf60          546   40 53 56 57 48 83 EC 20  push rbx; push rsi; push rdi
    0x6d190          152   48 8B 05 E1 13 0B 00 48  mov rax, qword ptr [rip + 0xb13e1]; mov rdx, qword ptr [rax 
    0x6d230          856   48 89 5C 24 20 55 48 83  mov qword ptr [rsp + 0x20], rbx; push rbp; sub rsp, 0x30
    0x6d590          349   48 89 5C 24 10 48 89 74  mov qword ptr [rsp + 0x10], rbx; mov qword ptr [rsp + 0x18],
    0x6d6f0          170   48 89 5C 24 08 48 89 6C  mov qword ptr [rsp + 8], rbx; mov qword ptr [rsp + 0x10], rb
    0x6d7a0          479   40 55 56 48 83 EC 28 F6  push rbp; push rsi; sub rsp, 0x28
    0x6d980           84   33 C0 4C 8B C1 39 81 B8  xor eax, eax; mov r8, rcx; cmp dword ptr [rcx + 0x21b8], eax
    0x6d9e0           81   33 C0 4C 8B D1 39 81 B8  xor eax, eax; mov r10, rcx; cmp dword ptr [rcx + 0x21b8], ea
    0x6da40           57   48 83 EC 38 49 8B C8 C7  sub rsp, 0x38; mov rcx, r8; mov dword ptr [rsp + 0x58], 0
    0x6da79          123   4C 8B 0D F8 0A 0B 00 44  mov r9, qword ptr [rip + 0xb0af8]; mov r10d, dword ptr [rsp 
    0x6daf4           33   C7 03 00 00 00 00 44 8B  mov dword ptr [rbx], 0; mov r10d, dword ptr [rsp + 0x58]; mo
    0x6db20           92   48 89 74 24 10 48 89 7C  mov qword ptr [rsp + 0x10], rsi; mov qword ptr [rsp + 0x20],
    0x6db7c          547   4C 8D 4D F0 48 8B CE 4C  lea r9, [rbp - 0x10]; mov rcx, rsi; lea r8, [rbp - 4]
    0x6dda0          895   4C 8B DC 49 89 53 10 49  mov r11, rsp; mov qword ptr [r11 + 0x10], rdx; mov qword ptr
    0x6e120          563   48 89 5C 24 10 48 89 6C  mov qword ptr [rsp + 0x10], rbx; mov qword ptr [rsp + 0x18],
    0x6e360          290   48 89 5C 24 08 48 89 7C  mov qword ptr [rsp + 8], rbx; mov qword ptr [rsp + 0x10], rd
    0x6e490          177   48 8B 05 E1 00 0B 00 4C  mov rax, qword ptr [rip + 0xb00e1]; mov r9, qword ptr [rax +
    0x6e550          168   48 8B 05 21 00 0B 00 4C  mov rax, qword ptr [rip + 0xb0021]; mov r10, qword ptr [rax 
    0x6e600         1412   48 8B C4 48 81 EC 08 01  mov rax, rsp; sub rsp, 0x108; mov rcx, qword ptr [rip + 0xaf
    0x6eb84           15   C6 81 78 01 00 00 00 48  mov byte ptr [rcx + 0x178], 0; add rsp, 0x108; ret 
    0x6eba0         2011   4C 8B DC 45 89 43 18 55  mov r11, rsp; mov dword ptr [r11 + 0x18], r8d; push rbp
    0x6f380           13   33 D2 41 B8 01 00 00 00  xor edx, edx; mov r8d, 1; jmp 0x6eba0
    0x6f390          106   4C 8B DC 49 89 4B 08 49  mov r11, rsp; mov qword ptr [r11 + 8], rcx; mov qword ptr [r
    0x6f400          191   48 8B C4 48 89 50 10 4C  mov rax, rsp; mov qword ptr [rax + 0x10], rdx; mov qword ptr
    0x6f4c0          194   48 8B C4 48 89 48 08 48  mov rax, rsp; mov qword ptr [rax + 8], rcx; mov qword ptr [r
    0x6f590          200   48 89 4C 24 08 48 89 54  mov qword ptr [rsp + 8], rcx; mov qword ptr [rsp + 0x10], rd
    0x6f658           36   48 8B 82 F8 01 00 00 42  mov rax, qword ptr [rdx + 0x1f8]; mov ecx, dword ptr [rax + 
    0x6f680           39   48 89 4C 24 08 48 89 54  mov qword ptr [rsp + 8], rcx; mov qword ptr [rsp + 0x10], rd
    0x6f6b0          808   4C 8B DC 53 55 48 81 EC  mov r11, rsp; push rbx; push rbp
    0x6f9e0         1858   4C 89 4C 24 20 4C 89 44  mov qword ptr [rsp + 0x20], r9; mov qword ptr [rsp + 0x18], 
    0x70130          852   4C 8B DC 49 89 5B 08 49  mov r11, rsp; mov qword ptr [r11 + 8], rbx; mov qword ptr [r
    0x70490            8   45 33 C0 E9 98 FC FF FF  xor r8d, r8d; jmp 0x70130
    0x704a0           80   40 53 48 83 EC 30 48 8B  push rbx; sub rsp, 0x30; mov rbx, qword ptr [rip + 0xae0cb]
    0x704f0          307   44 89 44 24 18 48 89 4C  mov dword ptr [rsp + 0x18], r8d; mov qword ptr [rsp + 8], rc
    0x70623           10   32 C0 48 83 C4 40 5F 5E  xor al, al; add rsp, 0x40; pop rdi
    0x70630          683   48 8B C4 48 89 58 08 48  mov rax, rsp; mov qword ptr [rax + 8], rbx; mov qword ptr [r
    0x708e0          801   48 8B C4 48 89 58 08 55  mov rax, rsp; mov qword ptr [rax + 8], rbx; push rbp
    0x70c10          113   48 89 5C 24 08 48 89 74  mov qword ptr [rsp + 8], rbx; mov qword ptr [rsp + 0x10], rs
    0x70c90          423   48 89 5C 24 08 48 89 74  mov qword ptr [rsp + 8], rbx; mov qword ptr [rsp + 0x18], rs
    0x70e40         1608   48 8B C4 44 89 40 18 55  mov rax, rsp; mov dword ptr [rax + 0x18], r8d; push rbp
    0x71490         2096   48 8B C4 48 89 58 10 48  mov rax, rsp; mov qword ptr [rax + 0x10], rbx; mov qword ptr
    0x71cc0         2071   48 8B C4 48 89 58 10 48  mov rax, rsp; mov qword ptr [rax + 0x10], rbx; mov qword ptr
    0x724e0         1349   4C 8B DC 55 53 56 41 57  mov r11, rsp; push rbp; push rbx
    0x72a30           73   48 83 EC 28 48 8B 0D 3D  sub rsp, 0x28; mov rcx, qword ptr [rip + 0xabb3d]; mov rax, 
    0x72a80          363   48 83 EC 78 48 8B 15 ED  sub rsp, 0x78; mov rdx, qword ptr [rip + 0xabaed]; mov rax, 
    0x72bf0         1519   4C 8B DC 55 57 41 55 49  mov r11, rsp; push rbp; push rdi
    0x731e0           72   48 8B 05 91 B3 0A 00 48  mov rax, qword ptr [rip + 0xab391]; mov rdx, qword ptr [rax 
    0x73230         1126   48 8B C4 89 48 08 55 53  mov rax, rsp; mov dword ptr [rax + 8], ecx; push rbp
    0x736a0           23   F3 0F 10 42 04 F3 0F 5C  movss xmm0, dword ptr [rdx + 4]; subss xmm0, dword ptr [rcx 
    0x736c0           78   48 8B C4 48 89 70 10 57  mov rax, rsp; mov qword ptr [rax + 0x10], rsi; push rdi
    0x7370e          971   48 89 9C 24 80 00 00 00  mov qword ptr [rsp + 0x80], rbx; mov rbx, rsi; movaps xmmwor
    0x73ae0         1943   48 8B C4 48 89 58 08 44  mov rax, rsp; mov qword ptr [rax + 8], rbx; mov dword ptr [r
    0x74280          895   48 89 5C 24 18 56 57 41  mov qword ptr [rsp + 0x18], rbx; push rsi; push rdi
    0x74600          603   48 89 5C 24 20 56 57 41  mov qword ptr [rsp + 0x20], rbx; push rsi; push rdi
    0x74860           51   83 F9 09 0F 87 09 01 00  cmp ecx, 9; ja 0x74972; movsxd rax, ecx
    0x74893            9   33 C0 44 3A C1 0F 9F C0  xor eax, eax; cmp r8b, cl; setg al
    0x7489c           22   41 0F B6 08 44 0F B6 02  movzx ecx, byte ptr [r8]; movzx r8d, byte ptr [rdx]; cmp r8b
    0x748b2           24   41 0F B7 08 44 0F B7 02  movzx ecx, word ptr [r8]; movzx r8d, word ptr [rdx]; cmp r8w
    0x748ca           24   41 0F B7 08 44 0F B7 02  movzx ecx, word ptr [r8]; movzx r8d, word ptr [rdx]; cmp r8w
    0x748e2           20   41 8B 08 44 8B 02 44 3B  mov ecx, dword ptr [r8]; mov r8d, dword ptr [rdx]; cmp r8d, 
    0x748f6           20   41 8B 08 44 8B 02 44 3B  mov ecx, dword ptr [r8]; mov r8d, dword ptr [rdx]; cmp r8d, 
    0x7490a           24   49 8B 08 4C 8B 02 4C 3B  mov rcx, qword ptr [r8]; mov r8, qword ptr [rdx]; cmp r8, rc
    0x74922           24   49 8B 08 4C 8B 02 4C 3B  mov rcx, qword ptr [r8]; mov r8, qword ptr [rdx]; cmp r8, rc
    0x7493a           27   F3 41 0F 10 00 F3 0F 10  movss xmm0, dword ptr [r8]; movss xmm1, dword ptr [rdx]; com
    0x74955           29   F2 41 0F 10 00 F2 0F 10  movsd xmm0, qword ptr [r8]; movsd xmm1, qword ptr [rdx]; com
    0x74975      3012235   0F 1F 00 80 58 07 00 9C  nop dword ptr [rax]; sbb byte ptr [rax + 7], 0; pushfq 

13.2 FUNCTION SIZE DISTRIBUTION
    <64B        : 501 functions
    64-255      : 356 functions
    256-1023    : 282 functions
    1K-4K       : 95 functions
    4K-16K      : 10 functions
    16K-64K     : 1 functions
    64K+        : 1 functions

13.3 TOP CALL TARGETS (Most-called functions)
    RVA 0x8aed0: called 225x
    RVA 0xb4d80: called 202x
    RVA 0x5d70: called 164x
    RVA 0x917c8: called 159x
    RVA 0x4e30: called 146x
    RVA 0x5d90: called 129x
    RVA 0x89b94: called 118x
    RVA 0x8a9e0: called 115x
    RVA 0x97040: called 112x
    RVA 0x147b0: called 101x
    RVA 0x392f0: called 98x
    RVA 0xb55a0: called 95x
    RVA 0x39360: called 94x
    RVA 0x72a30: called 86x
    RVA 0x5ce0: called 80x
    RVA 0x6f390: called 76x
    RVA 0x56060: called 75x
    RVA 0x1d0: called 64x
    RVA 0x5010: called 62x
    RVA 0x55520: called 59x
    RVA 0x4cca0: called 56x
    RVA 0x4cb30: called 55x
    RVA 0x8a5a0: called 53x
    RVA 0x562d0: called 52x
    RVA 0x38bd0: called 51x
    RVA 0x8a598: called 48x
    RVA 0x37250: called 48x
    RVA 0x7f0: called 46x
    RVA 0x624e0: called 46x
    RVA 0x3d0: called 45x

================================================================================
  TASK 14: BASIC BLOCK / CFG ANALYSIS (first 0x5000 bytes)
================================================================================
    Total basic blocks: 737
    Total control flow edges: 5580
    fall: 4816
    cond_taken: 355
    cond_fall: 355
    uncond_jmp: 54

14.2 CYCLOMATIC COMPLEXITY PER FUNCTION

    RVA         SIZE       M(complexity)  N(blocks)  E(edges)
    ----------  ---------  -------------  ---------  --------
    0x0               25      5 (LOW  )           1         4
    0x150            120     11 (HIGH )           6        15
    0x1d0             91     29 (VHIGH)           1        28
    0x290             66     19 (HIGH )           2        19
    0x300             33      7 (MED  )           1         6
    0x330             31      6 (MED  )           1         5
    0x3d0             16      3 (LOW  )           1         2
    0x3f0             28      9 (MED  )           1         8
    0x40c              5      1 (LOW  )           1         0
    0x420             15      5 (LOW  )           1         4
    0x42f              5      1 (LOW  )           1         0
    0x440             49     15 (HIGH )           2        15
    0x471             10      2 (LOW  )           1         1
    0x480            867    161 (VHIGH)           6       165
    0x7f0            408     86 (VHIGH)          10        94
    0x988             17      3 (LOW  )           1         2
    0x99a             10      2 (LOW  )           1         1
    0x9b0            405     86 (VHIGH)          10        94
    0xb45             17      3 (LOW  )           1         2
    0xb57             10      2 (LOW  )           1         1
    0xb70            549    142 (VHIGH)          39       179
    0xd95             20      6 (MED  )           1         5
    0xdaa              5      1 (LOW  )           1         0
    0xdb0            726    161 (VHIGH)          20       179
    0x1086            41     12 (HIGH )           2        12
    0x10b0          2067    414 (VHIGH)          63       475
    0x18c3            79     21 (VHIGH)           5        24
    0x1913            38      9 (MED  )           2         9
    0x1940           715    165 (VHIGH)          35       198
    0x1c0b           136     33 (VHIGH)           8        39
    0x1ca0           574    136 (VHIGH)          28       162
    0x1ede            62     18 (HIGH )           3        19
    0x1f20           436     79 (VHIGH)           1        78
    0x2110           531     99 (VHIGH)           9       106
    0x2323            17      3 (LOW  )           1         2
    0x2335            10      2 (LOW  )           1         1
    0x2340           810    179 (VHIGH)          29       206
    0x266a            24      6 (MED  )           1         5
    0x2683            26      7 (MED  )           2         7
    0x26a0           458    118 (VHIGH)          19       135
    0x286a            20      6 (MED  )           1         5
    0x287f            12      3 (LOW  )           2         3
    0x2890          1318    247 (VHIGH)          37       282
    0x2dc0          2629    544 (VHIGH)         100       642
    0x3805            60     12 (HIGH )           5        15
    0x3842            68     14 (HIGH )           5        17
    0x3890            53     10 (MED  )           4        12
    0x38d0          1335    268 (VHIGH)          57       323
    0x3e07            20      3 (LOW  )           1         2
    0x3e1c            10      2 (LOW  )           1         1
    0x3e30            44     14 (HIGH )           2        14
    0x3e60          1198    259 (VHIGH)          20       277
    0x430e            20      6 (MED  )           1         5
    0x4330           129     32 (VHIGH)           2        32
    0x43d0            66     18 (HIGH )           4        20
    0x4412            36      8 (MED  )           1         7
    0x4440            90     26 (VHIGH)           1        25
    0x44a0           115     30 (VHIGH)           5        33
    0x4513            22      7 (MED  )           1         6
    0x4540           201     47 (VHIGH)           8        53
    0x4609            22      7 (MED  )           1         6
    0x4650           144     39 (VHIGH)           7        44
    0x46e0            20      6 (MED  )           1         5
    0x4710            54     16 (HIGH )           2        16
    0x4746            17      3 (LOW  )           1         2
    0x4758            10      2 (LOW  )           1         1
    0x4780           360     88 (VHIGH)          22       108
    0x48e8             5      1 (LOW  )           1         0
    0x48ee            24      6 (MED  )           1         5
    0x4910            11      4 (LOW  )           1         3
    0x491b             4      2 (LOW  )           1         1
    0x4930           204     50 (VHIGH)           6        54
    0x49fc             5      1 (LOW  )           1         0
    0x4a10           223     57 (VHIGH)          10        65
    0x4aef            80     22 (VHIGH)           3        23
    0x4b3f            33      8 (MED  )           2         8
    0x4b61             5      1 (LOW  )           1         0
    0x4b70           186     42 (VHIGH)           7        47
    0x4c2a            41      7 (MED  )           3         8
    0x4c54             5      1 (LOW  )           1         0
    0x4c60           178     41 (VHIGH)           7        46
    0x4d12             5      1 (LOW  )           1         0
    0x4d20            81     22 (VHIGH)           6        26
    0x4d71            22      7 (MED  )           1         6
    0x4d90            16      3 (LOW  )           1         2
    0x4db0            91     22 (VHIGH)           6        26
    0x4e0b            22      7 (MED  )           1         6
    0x4e30            88     21 (VHIGH)           6        25
    0x4e88            24      6 (MED  )           1         5
    0x4eb0            75     22 (VHIGH)           4        24
    0x4efb           237     58 (VHIGH)          11        67
    0x4fe8            24      6 (MED  )           1         5

14.3 BACKWARD JUMPS (LOOP DETECTION)
    Backward edges (loops): 36
    0x7ac -> 0x790 (cond_taken)
    0x8f0 -> 0x8a0 (cond_taken)
    0xab0 -> 0xa60 (cond_taken)
    0xd6e -> 0xc33 (cond_taken)
    0xe88 -> 0xe80 (cond_taken)
    0x1008 -> 0x1001 (cond_taken)
    0x19a8 -> 0x19a0 (cond_taken)
    0x1b97 -> 0x1b43 (cond_taken)
    0x1c28 -> 0x1be5 (cond_taken)
    0x1c3c -> 0x1be0 (cond_taken)
    0x1c53 -> 0x1be0 (uncond_jmp)
    0x1cf8 -> 0x1cf0 (cond_taken)
    0x2239 -> 0x21f0 (cond_taken)
    0x2507 -> 0x23f1 (cond_taken)
    0x280d -> 0x27e0 (cond_taken)
    0x29c9 -> 0x29c0 (cond_taken)
    0x2a47 -> 0x2a30 (cond_taken)
    0x2afc -> 0x2a70 (cond_taken)
    0x2bbc -> 0x2bb3 (cond_taken)
    0x2c37 -> 0x2c20 (cond_taken)

================================================================================
  TASK 15: DEAD CODE / PADDING
================================================================================

15.1 PADDING TYPES
    Byte value frequency (top values):
    0x00 (NUL):  2,641,417 (75.69%)
    0x48 (REX.W):     44,424 (1.27%)
    0x0F (2-byte op):     39,156 (1.12%)
    0x8B (MOV):     29,501 (0.85%)
    0xFF (JMP/CALL):     22,161 (0.64%)
    0x24 ():     17,287 (0.50%)
    0x41 (REX.B):     15,073 (0.43%)
    0x44 ():     13,593 (0.39%)
    0x89 (MOV):     12,928 (0.37%)
    0x8D ():     12,757 (0.37%)
    0x01 ():     12,437 (0.36%)
    0xF3 ():     12,373 (0.35%)
    0x20 ():     12,332 (0.35%)
    0x74 (JE):     11,393 (0.33%)
    0xCC (INT3):     11,211 (0.32%)

15.2 INT3 (0xCC) PADDING REGIONS
    INT3 regions: 1158, total 8,992 bytes (0.26%)
    0x19-0x20: 7 bytes of 0xCC
    0x2c-0x30: 4 bytes of 0xCC
    0x3c-0x40: 4 bytes of 0xCC
    0x4c-0x50: 4 bytes of 0xCC
    0x5c-0x60: 4 bytes of 0xCC
    0x6c-0x70: 4 bytes of 0xCC
    0x7c-0x80: 4 bytes of 0xCC
    0x8c-0x90: 4 bytes of 0xCC
    0x9c-0xa0: 4 bytes of 0xCC
    0xac-0xb0: 4 bytes of 0xCC

15.3 NOP (0x90) PADDING REGIONS
    NOP regions: 7, total 84 bytes (0.00%)
    0x2d941-0x2d949: 8 bytes of 0x90
    0xf1b20-0xf1b28: 8 bytes of 0x90
    0xf1e30-0xf1e36: 6 bytes of 0x90
    0xf1e38-0xf1e5a: 34 bytes of 0x90
    0xf1e60-0xf1e63: 3 bytes of 0x90
    0xf1e74-0xf1e7d: 9 bytes of 0x90
    0x107370-0x107380: 16 bytes of 0x90

15.4 MULTI-BYTE NOP SEQUENCES
    Multi-byte NOP sequences:
    3-byte: 59
    4-byte: 118

15.5 ZERO-FILL GAPS (>= 8 bytes)
    Zero-fill gaps (>=8 bytes): 2658, total 2,486,802 bytes
    0xb5fdf-0xb5fe7: 8 bytes
    0xb601f-0xb6027: 8 bytes
    0xb7563-0xb756b: 8 bytes
    0xb80bc-0xb9000: 3908 bytes
    0xb9016-0xb9020: 10 bytes
    0xb9096-0xb90a0: 10 bytes
    0xb90be-0xb90c8: 10 bytes
    0xb9526-0xb9531: 11 bytes
    0xb9646-0xb9650: 10 bytes
    0xb9656-0xb9660: 10 bytes

================================================================================
  TASK 16: INLINE / TEMPLATE EXPANSIONS
================================================================================

16.1 REPEATED CODE PATTERNS (20-byte window)
    Byte-identical 20-byte windows (3+ occurrences): 3654
    0xb80bc: 613034x - add byte ptr [rax], al; add byte ptr [rax], al; add byte ptr [rax], al
    0xc872c: 120x - idiv dword ptr [rdi]; add byte ptr [rax], al; add byte ptr [rax], al
    0xc8b74: 110x - push 2; add byte ptr [rax], al; loopne 0xc8bf7
    0xbc1fc: 94x - 
    0xbd050: 87x - add dword ptr [rax], eax; add byte ptr [rax], al; add byte ptr [rax], al
    0xc8728: 80x - test al, 0xaf; fidiv dword ptr [rbp - 9]; jg 0xc872f
    0xfc23c: 73x - and byte ptr [rax], ah; and byte ptr [rax], ah; and byte ptr [rax], ah
    0x88fdc: 71x - 
    0xbc1f8: 70x - 
    0xc9028: 62x - add byte ptr [rax], al; add byte ptr [rax], al; add byte ptr [rax], al
    0xbc1f4: 60x - 
    0xc8acc: 60x - push 2; add byte ptr [rax], al
    0xbd044: 58x - add byte ptr [rax], al; add byte ptr [rax], al; add byte ptr [rax], al
    0xc8740: 54x - add byte ptr [rax], al; add byte ptr [rax], al; add byte ptr [rax], al
    0xc879c: 54x - std ; jg 0xc879f; add byte ptr [rax], al
    0xbd040: 53x - add byte ptr [rax], al; add byte ptr [rax], al; add byte ptr [rax], al
    0xc902c: 52x - add byte ptr [rax], al; add byte ptr [rax], al; add byte ptr [rax], al
    0xc4298: 51x - add byte ptr [rax], al; add byte ptr [rax], al; add byte ptr [rax], al
    0xc88e4: 50x - sahf ; add byte ptr [rax], al; add byte ptr [rax], al
    0xc9024: 50x - add byte ptr [rax], al; add byte ptr [rax], al; add byte ptr [rax], al
    0xc9434: 50x - std ; jg 0xc9437; add al, bh
    0xca6d0: 47x - add byte ptr [rax], al; add byte ptr [rax], al; add byte ptr [rax], al
    0xca6d4: 47x - add byte ptr [rax], al; add byte ptr [rax], al; add byte ptr [rax], al
    0xbd048: 46x - add byte ptr [rax], al; add byte ptr [rax], al; add byte ptr [rax], al
    0xc8724: 40x - sahf ; add byte ptr [rax], al; add byte ptr [rax - 0x88a2551], ch
    0xc9424: 40x - xchg edx, eax; add byte ptr [rax], al; add byte ptr [rax - 0x15], dl
    0xc9428: 40x - push rax; jmp 0xc93ba; sti 
    0xc942c: 40x - sahf ; add byte ptr [rax], al; add byte ptr [rax - 0x2709fd1], bl
    0xc9430: 40x - cwde 
    0xc9bec: 40x - push 2; add byte ptr [rax], al; add byte ptr [rax], al

16.2 SIMILAR-SIZED FUNCTIONS (TEMPLATE CANDIDATES)
    Template candidate groups (3+ same-sized functions): 62
    Size ~16: 190 functions at: 0x20, 0x30, 0x40, 0x50, 0x60, 0x70, 0x80, 0x90, 0xa0, 0x130
    Size ~32: 176 functions at: 0x0, 0x270, 0x2e0, 0x330, 0x3f0, 0x988, 0xb45, 0xd95, 0x2323, 0x266a
    Size ~48: 82 functions at: 0x300, 0x1086, 0x1913, 0x20e0, 0x3e30, 0x4412, 0x4b3f, 0x4c2a, 0x5190, 0x51c0
    Size ~64: 54 functions at: 0xb0, 0xf0, 0x230, 0x350, 0x390, 0x440, 0x1ede, 0x3805, 0x3890, 0x4710
    Size ~96: 45 functions at: 0x1d0, 0x4440, 0x4d20, 0x4db0, 0x4e30, 0x141c0, 0x14260, 0x142c0, 0x146f0, 0x14750
    Size ~128: 41 functions at: 0x150, 0x44a0, 0x59d0, 0x17343, 0x23db6, 0x244c0, 0x25d80, 0x28060, 0x2a6e0, 0x2c510
    Size ~80: 41 functions at: 0x290, 0x18c3, 0x3842, 0x43d0, 0x4aef, 0x4eb0, 0x14490, 0x17d86, 0x18590, 0x19774
    Size ~144: 32 functions at: 0x1c0b, 0x4330, 0x4650, 0x14c90, 0x17a40, 0x19bc0, 0x1b86e, 0x1cae9, 0x1f549, 0x24430
    Size ~112: 31 functions at: 0x5810, 0x147d0, 0x1b797, 0x1ff68, 0x212e2, 0x23727, 0x24bd0, 0x24fc0, 0x32dc0, 0x34680
    Size ~160: 29 functions at: 0x5dd0, 0x13cd0, 0x1e1d0, 0x27fc0, 0x284d0, 0x2d586, 0x2d6a0, 0x2e329, 0x2e499, 0x2e609
    Size ~176: 28 functions at: 0x18170, 0x1df30, 0x2a3b0, 0x2c1ab, 0x32e70, 0x346f0, 0x37250, 0x384cc, 0x38bd0, 0x3b6d0
    Size ~208: 27 functions at: 0x4540, 0x4930, 0x14840, 0x176e0, 0x19a10, 0x1ba40, 0x2adab, 0x2e260, 0x2e3d0, 0x2e540
    Size ~192: 27 functions at: 0x4b70, 0x4c60, 0x143c0, 0x24ce0, 0x25c40, 0x2d7a6, 0x32fb0, 0x34c80, 0x37b90, 0x406e0
    Size ~224: 25 functions at: 0x4a10, 0x178f0, 0x19ae0, 0x1bb10, 0x1c172, 0x2a7b0, 0x2d490, 0x38280, 0x3b5f0, 0x40600
    Size ~240: 18 functions at: 0x4efb, 0x17ca0, 0x1c090, 0x2aecd, 0x347a0, 0x450a0, 0x48c80, 0x4e7b0, 0x4f126, 0x50220

16.3 HEAVILY CALLED SHORT FUNCTIONS (likely inlined often)
    0x5d70: called 164x, function size 13B at 0x5d70
    0x4e30: called 146x, function size 88B at 0x4e30
    0x5d90: called 129x, function size 29B at 0x5d90
    0x147b0: called 101x, function size 16B at 0x147b0
    0x392f0: called 98x, function size 110B at 0x392f0
    0x39360: called 94x, function size 112B at 0x39360
    0x72a30: called 86x, function size 73B at 0x72a30
    0x5ce0: called 80x, function size 16B at 0x5ce0
    0x6f390: called 76x, function size 106B at 0x6f390
    0x1d0: called 64x, function size 91B at 0x1d0
    0x55520: called 59x, function size 127B at 0x55520
    0x4cca0: called 56x, function size 163B at 0x4cca0
    0x38bd0: called 51x, function size 173B at 0x38bd0
    0x37250: called 48x, function size 162B at 0x37250
    0x3d0: called 45x, function size 16B at 0x3d0
    0x3e630: called 45x, function size 141B at 0x3e630
    0x53cb0: called 29x, function size 61B at 0x53cb0

16.4 COMMON STACK FRAME SIZES (sub rsp patterns)
    Common stack frame sizes:
    sub rsp, 0x20 (32): 177x
    sub rsp, 0x30 (48): 75x
    sub rsp, 0x28 (40): 56x
    sub rsp, 0x40 (64): 38x
    sub rsp, 0x50 (80): 22x

================================================================================
  SUMMARY STATISTICS
================================================================================

    .text section size:          3,489,792 bytes (3.33 MB)
    Total instructions:          811,122
    Unique mnemonics:            137
    Detected functions:          1,246
    Syscall instructions:        0
    SIMD instructions:           6198
    REP-prefixed instructions:   6
    RDTSC count:                 0
    RDRAND count:                0
    Security cookie refs:        0
    INT3 padding:                8,992 bytes (0.26%)
    NOP padding:                 84 bytes (0.00%)

    TOP 25 MNEMONICS:
      add           :  699,257
      mov           :   31,117
      lea           :    8,102
      call          :    6,877
      cmp           :    6,553
      int3          :    5,989
      movss         :    4,802
      je            :    4,346
      test          :    3,864
      movaps        :    3,250
      xor           :    2,858
      jne           :    2,683
      sub           :    2,218
      jmp           :    2,078
      movups        :    1,945
      movzx         :    1,634
      pop           :    1,475
      addss         :    1,471
      push          :    1,288
      inc           :    1,262
      nop           :    1,053
      ret           :      946
      xorps         :      917
      movsxd        :      912
      subss         :      911

    TOP 20 REGISTERS:

================================================================================
  APPENDIX A: SYSCALL STUB DETAILS
================================================================================

A.1 ALL SYSCALL INSTRUCTION SITES (0)

================================================================================
  APPENDIX B: LARGEST FUNCTIONS
================================================================================

B.1 Function at 0x74975, size 3012235 bytes
    Disassembly (first 0x200 bytes):
    0x74975: nop dword ptr [rax]
    0x74978: sbb byte ptr [rax + 7], 0
    0x7497c: pushfq 
    0x7497d: pop rax

B.1 Function at 0xb190, size 35628 bytes
    Disassembly (first 0x200 bytes):
    0xb190: mov qword ptr [rsp + 0x10], rbx
    0xb195: mov qword ptr [rsp + 0x18], rsi
    0xb19a: mov qword ptr [rsp + 0x20], rdi
    0xb19f: push rbp
    0xb1a0: push r12
    0xb1a2: push r13
    0xb1a4: push r14
    0xb1a6: push r15
    0xb1a8: lea rbp, [rsp - 0x11f0]
    0xb1b0: mov eax, 0x12f0
    0xb1b5: call 0x8b8c0
    0xb1ba: sub rsp, rax
    0xb1bd: movaps xmmword ptr [rsp + 0x12e0], xmm6
    0xb1c5: movaps xmmword ptr [rsp + 0x12d0], xmm7
    0xb1cd: movaps xmmword ptr [rsp + 0x12c0], xmm8
    0xb1d6: movaps xmmword ptr [rsp + 0x12b0], xmm9
    0xb1df: movaps xmmword ptr [rsp + 0x12a0], xmm10
    0xb1e8: movaps xmmword ptr [rsp + 0x1290], xmm11
    0xb1f1: movaps xmmword ptr [rsp + 0x1280], xmm12
    0xb1fa: movaps xmmword ptr [rsp + 0x1270], xmm13
    0xb203: movaps xmmword ptr [rsp + 0x1260], xmm14
    0xb20c: movaps xmmword ptr [rsp + 0x1250], xmm15
    0xb215: mov rax, qword ptr [rip + 0x10ee64]
    0xb21c: xor rax, rsp
    0xb21f: mov qword ptr [rbp + 0x1140], rax
    0xb226: mov rdi, rcx
    0xb229: mov qword ptr [rbp + 0x198], rcx
    0xb230: xor r14d, r14d
    0xb233: mov dword ptr [rbp - 0x48], r14d
    0xb237: mov dword ptr [rbp + 0x270], 0x50
    0xb241: mov dword ptr [rbp + 0x274], 0x20
    0xb24b: lea rax, [rip - 0x5482]
    0xb252: mov qword ptr [rbp + 0x278], rax
    0xb259: mov qword ptr [rbp + 0x280], r14
    0xb260: mov qword ptr [rbp + 0x288], rcx
    0xb267: xorps xmm0, xmm0
    0xb26a: movdqa xmmword ptr [rbp + 0x290], xmm0
    0xb272: xorps xmm1, xmm1
    0xb275: movdqa xmmword ptr [rbp + 0x2a0], xmm1
    0xb27d: lea rsi, [rip + 0xf3e84]
    0xb284: mov qword ptr [rbp + 0x2b0], rsi
    0xb28b: mov qword ptr [rbp + 0x2b8], r14
    0xb292: lea rcx, [rbp + 0x270]
    0xb299: call qword ptr [rip + 0xae429]
    0xb29f: xor ecx, ecx
    0xb2a1: call qword ptr [rip + 0xae439]
    0xb2a7: mov ebx, eax
    0xb2a9: mov r15d, 1
    0xb2af: mov ecx, r15d
    0xb2b2: call qword ptr [rip + 0xae428]
    0xb2b8: add eax, 0xfffffda8
    0xb2bd: cdq 
    0xb2be: sub eax, edx
    0xb2c0: sar eax, 1
    0xb2c2: mov ecx, eax
    0xb2c4: lea eax, [rbx - 0x398]
    0xb2ca: cdq 
    0xb2cb: sub eax, edx
    0xb2cd: sar eax, 1
    0xb2cf: mov qword ptr [rsp + 0x58], r14
    0xb2d4: mov qword ptr [rsp + 0x50], rdi
    0xb2d9: mov qword ptr [rsp + 0x48], r14
    0xb2de: mov qword ptr [rsp + 0x40], r14
    0xb2e3: mov dword ptr [rsp + 0x38], 0x258
    0xb2eb: mov dword ptr [rsp + 0x30], 0x398
    0xb2f3: mov dword ptr [rsp + 0x28], ecx
    0xb2f7: mov dword ptr [rsp + 0x20], eax
    0xb2fb: mov r9d, 0xcf0000
    0xb301: lea r8, [rip + 0xf3e10]
    0xb308: mov rdx, rsi
    0xb30b: mov ecx, 8
    0xb310: call qword ptr [rip + 0xae35a]
    0xb316: mov qword ptr [rip + 0x11334b], rax
    0xb31d: mov rcx, rax
    0xb320: call qword ptr [rip + 0xae3c2]
    0xb326: mov qword ptr [rip + 0x11332b], rax
    0xb32d: xorps xmm0, xmm0
    0xb330: xor ecx, ecx
    0xb332: movups xmmword ptr [rbp + 0xf50], xmm0
    0xb339: movups xmmword ptr [rbp + 0xf60], xmm0

B.1 Function at 0x45183, size 9675 bytes
    Disassembly (first 0x200 bytes):
    0x45183: mov ecx, r14d
    0x45186: and ecx, 0x30200
    0x4518c: cmp ecx, 0x30200
    0x45192: jne 0x45198
    0x45194: or r14d, 6
    0x45198: mov ebx, dword ptr [rsi + 0x12b0]
    0x4519e: lea r15, [rsi + 0x1338]
    0x451a5: cmp dword ptr [r15], 0
    0x451a9: mov edx, dword ptr [rdi + 0x278]
    0x451af: mov dword ptr [rsp + 0x54], ebx
    0x451b3: mov dword ptr [rsp + 0x4c], edx
    0x451b7: jne 0x451c6
    0x451b9: cmp byte ptr [rsi + 0x12bd], 0
    0x451c0: je 0x451c6
    0x451c2: mov al, 1
    0x451c4: jmp 0x451c8
    0x451c6: xor al, al
    0x451c8: mov byte ptr [rdi + 0xd3], al
    0x451ce: lea eax, [rbx - 1]
    0x451d1: cmp edx, eax
    0x451d3: setl r8b
    0x451d7: mov byte ptr [rsp + 0x40], r8b
    0x451dc: bt r14d, 0x1a
    0x451e1: jae 0x45217
    0x451e3: movsxd rax, dword ptr [rsi + 0x1e70]
    0x451ea: imul rcx, rax, 0x38
    0x451ee: mov rax, qword ptr [rsi + 0x1e68]
    0x451f5: cmp rdi, qword ptr [rcx + rax + 8]
    0x451fa: mov eax, dword ptr [rcx + rax]
    0x451fd: setne dl
    0x45200: cmp dword ptr [rdi + 0x94], eax
    0x45206: setne al
    0x45209: or dl, al
    0x4520b: or r8b, dl
    0x4520e: mov edx, dword ptr [rsp + 0x4c]
    0x45212: mov byte ptr [rsp + 0x40], r8b
    0x45217: mov byte ptr [rdi + 0xd1], r8b
    0x4521e: test r8b, r8b
    0x45221: je 0x45238
    0x45223: or byte ptr [rdi + 0xf0], 8
    0x4522a: or byte ptr [rdi + 0xf1], 8
    0x45231: or byte ptr [rdi + 0xf2], 8
    0x45238: xor r12d, r12d
    0x4523b: cmp edx, ebx
    0x4523d: je 0x452a8
    0x4523f: mov r8d, r14d
    0x45242: movzx edx, r9b
    0x45246: mov rcx, rdi
    0x45249: call 0x421a0
    0x4524e: mov dword ptr [rdi + 0x14], r14d
    0x45252: test dword ptr [rsi + 0x1d88], 0x100
    0x4525c: je 0x45266
    0x4525e: mov eax, dword ptr [rsi + 0x1dc0]
    0x45264: jmp 0x45269
    0x45266: mov eax, r12d
    0x45269: mov edx, dword ptr [rsp + 0x4c]
    0x4526d: mov dword ptr [rdi + 0x18], eax
    0x45270: mov dword ptr [rdi + 0x278], ebx
    0x45276: movsd xmm0, qword ptr [rsi + 0x12a8]
    0x4527e: mov word ptr [rdi + 0xdc], r12w
    0x45286: cvtpd2ps xmm0, xmm0
    0x4528a: movss dword ptr [rdi + 0x27c], xmm0
    0x45292: movzx eax, word ptr [rsi + 0x1358]
    0x45299: inc dword ptr [rsi + 0x1358]
    0x4529f: mov word ptr [rdi + 0xde], ax
    0x452a6: jmp 0x452ac
    0x452a8: mov r14d, dword ptr [rdi + 0x14]
    0x452ac: movsxd rax, dword ptr [r15]
    0x452af: test eax, eax
    0x452b1: jne 0x452b8
    0x452b3: mov r13, r12
    0x452b6: jmp 0x452c8
    0x452b8: imul rcx, rax, 0x70
    0x452bc: mov rax, qword ptr [rsi + 0x1340]
    0x452c3: mov r13, qword ptr [rcx + rax - 0x70]
    0x452c8: cmp edx, ebx
    0x452ca: je 0x452d9
    0x452cc: test r14d, 0x5000000
    0x452d3: cmovne r12, r13
    0x452d7: jmp 0x452e0

B.1 Function at 0x6040, size 8184 bytes
    Disassembly (first 0x200 bytes):
    0x6040: mov rax, rsp
    0x6043: mov qword ptr [rax + 8], rbx
    0x6047: mov qword ptr [rax + 0x10], rsi
    0x604b: mov qword ptr [rax + 0x18], rdi
    0x604f: push rbp
    0x6050: push r12
    0x6052: push r13
    0x6054: push r14
    0x6056: push r15
    0x6058: lea rbp, [rsp - 0x70]
    0x605d: sub rsp, 0x170
    0x6064: movaps xmmword ptr [rax - 0x38], xmm6
    0x6068: movaps xmmword ptr [rax - 0x48], xmm7
    0x606c: movaps xmmword ptr [rax - 0x58], xmm8
    0x6071: movaps xmmword ptr [rax - 0x68], xmm9
    0x6076: movaps xmmword ptr [rax - 0x78], xmm12
    0x607b: mov rax, qword ptr [rip + 0x113ffe]
    0x6082: xor rax, rsp
    0x6085: mov qword ptr [rbp + 0x10], rax
    0x6089: xor r12d, r12d
    0x608c: mov rsi, qword ptr [rip + 0x1184e5]
    0x6093: mov rbx, qword ptr [rsi + 0x1368]
    0x609a: cmp byte ptr [rbx + 0xcf], r12b
    0x60a1: jne 0x7ff2
    0x60a7: movsxd rax, dword ptr [rbx + 0x108]
    0x60ae: mov r8, qword ptr [rbx + 0x110]
    0x60b5: mov r8d, dword ptr [r8 + rax*4 - 4]
    0x60ba: xor edx, edx
    0x60bc: lea rcx, [rip + 0xf8305]
    0x60c3: call 0x38570
    0x60c8: mov r14d, eax
    0x60cb: mov rcx, qword ptr [rbx]
    0x60ce: cmp dword ptr [rcx + 0x13c0], eax
    0x60d4: jne 0x60e9
    0x60d6: lea r8, [rip + 0xf82eb]
    0x60dd: mov edx, 0xc
    0x60e2: mov ecx, eax
    0x60e4: call 0x55170
    0x60e9: lea rcx, [rsi + 0x2208]
    0x60f0: mov edx, r14d
    0x60f3: call 0x38e40
    0x60f8: mov rdx, rax
    0x60fb: movsxd rcx, dword ptr [rax]
    0x60fe: cmp ecx, -1
    0x6101: je 0x6113
    0x6103: imul rcx, rcx, 0xa8
    0x610a: add rcx, qword ptr [rsi + 0x2200]
    0x6111: jmp 0x612a
    0x6113: mov eax, dword ptr [rsi + 0x2218]
    0x6119: mov dword ptr [rdx], eax
    0x611b: lea rcx, [rsi + 0x21f8]
    0x6122: call 0x86f80
    0x6127: mov rcx, rax
    0x612a: movss xmm3, dword ptr [rbx + 0x11c]
    0x6132: movss xmm2, dword ptr [rsi + 0xc30]
    0x613a: movss xmm0, dword ptr [rbx + 0x118]
    0x6142: movss dword ptr [rsp + 0x40], xmm0
    0x6148: movss dword ptr [rsp + 0x44], xmm3
    0x614e: movss xmm1, dword ptr [rbx + 0x238]
    0x6156: movss dword ptr [rsp + 0x48], xmm1
    0x615c: addss xmm3, dword ptr [rsi + 0x1080]
    0x6164: addss xmm2, xmm2
    0x6168: addss xmm3, xmm2
    0x616c: movss dword ptr [rsp + 0x4c], xmm3
    0x6172: mov dword ptr [rcx + 0x1c], r14d
    0x6176: movss xmm0, dword ptr [rbx + 0x58]
    0x617b: mulss xmm0, dword ptr [rip + 0x100aad]
    0x6183: cvttss2si eax, xmm0
    0x6187: movd xmm0, eax
    0x618b: cvtdq2ps xmm0, xmm0
    0x618e: movss xmm1, dword ptr [rcx + 0x34]
    0x6193: subss xmm1, xmm0
    0x6197: movss dword ptr [rcx + 0x6c], xmm1
    0x619c: movss xmm2, dword ptr [rbx + 0x58]
    0x61a1: mulss xmm2, dword ptr [rip + 0x100a87]
    0x61a9: cvttss2si eax, xmm2
    0x61ad: movd xmm0, eax
    0x61b1: cvtdq2ps xmm0, xmm0
    0x61b4: addss xmm0, dword ptr [rcx + 0x3c]
    0x61b9: movss dword ptr [rcx + 0x70], xmm0

B.1 Function at 0x8070, size 6985 bytes
    Disassembly (first 0x200 bytes):
    0x8070: mov rax, rsp
    0x8073: mov qword ptr [rax + 8], rbx
    0x8077: mov qword ptr [rax + 0x10], rsi
    0x807b: mov qword ptr [rax + 0x18], rdi
    0x807f: push rbp
    0x8080: push r12
    0x8082: push r13
    0x8084: push r14
    0x8086: push r15
    0x8088: lea rbp, [rax - 0x268]
    0x808f: sub rsp, 0x340
    0x8096: movaps xmmword ptr [rax - 0x38], xmm6
    0x809a: movaps xmmword ptr [rax - 0x48], xmm7
    0x809e: movaps xmmword ptr [rax - 0x58], xmm8
    0x80a3: movaps xmmword ptr [rax - 0x68], xmm9
    0x80a8: mov rax, qword ptr [rip + 0x111fd1]
    0x80af: xor rax, rsp
    0x80b2: mov qword ptr [rbp + 0x1f0], rax
    0x80b9: mov rcx, qword ptr [rip + 0x1164b8]
    0x80c0: mov rax, qword ptr [rcx + 0x1368]
    0x80c7: mov byte ptr [rax + 0xcc], 1
    0x80ce: mov rax, qword ptr [rcx + 0x1368]
    0x80d5: xorps xmm8, xmm8
    0x80d9: movss xmm7, dword ptr [rip + 0xfedbb]
    0x80e1: cmp byte ptr [rax + 0xcf], 0
    0x80e8: jne 0x8100
    0x80ea: mov qword ptr [rsp + 0x68], 0
    0x80f3: movaps xmm1, xmm7
    0x80f6: lea rcx, [rsp + 0x68]
    0x80fb: call 0x4cb30
    0x8100: mov rcx, qword ptr [rip + 0x116471]
    0x8107: mov rax, qword ptr [rcx + 0x1368]
    0x810e: mov byte ptr [rax + 0xcc], 1
    0x8115: mov rax, qword ptr [rcx + 0x1368]
    0x811c: movss xmm1, dword ptr [rax + 0x118]
    0x8124: movss xmm2, dword ptr [rax + 0x11c]
    0x812c: cmp qword ptr [rax + 0x1c0], 0
    0x8134: jne 0x8145
    0x8136: cmp qword ptr [rcx + 0x2188], 0
    0x813e: mov ecx, 0x268
    0x8143: je 0x814a
    0x8145: mov ecx, 0x238
    0x814a: movss xmm0, dword ptr [rax + rcx]
    0x814f: subss xmm0, xmm1
    0x8153: addss xmm0, xmm1
    0x8157: movss dword ptr [rsp + 0x68], xmm0
    0x815d: movaps xmm0, xmm2
    0x8160: addss xmm0, dword ptr [rip + 0xfeb70]
    0x8168: movss dword ptr [rsp + 0x6c], xmm0
    0x816e: movss dword ptr [rsp + 0x60], xmm1
    0x8174: movss dword ptr [rsp + 0x64], xmm2
    0x817a: mov dword ptr [rsp + 0x30], 0x28bfd900
    0x8182: mov dword ptr [rsp + 0x28], 0x2840d1ff
    0x818a: mov dword ptr [rsp + 0x20], 0xc840d1ff
    0x8192: mov r9d, 0xc8bfd900
    0x8198: lea r8, [rsp + 0x68]
    0x819d: lea rdx, [rsp + 0x60]
    0x81a2: mov rcx, qword ptr [rax + 0x2b0]
    0x81a9: call 0x628e0
    0x81ae: mov rcx, qword ptr [rip + 0x1163c3]
    0x81b5: mov rax, qword ptr [rcx + 0x1368]
    0x81bc: mov byte ptr [rax + 0xcc], 1
    0x81c3: mov rax, qword ptr [rcx + 0x1368]
    0x81ca: cmp byte ptr [rax + 0xcf], 0
    0x81d1: jne 0x81e9
    0x81d3: mov qword ptr [rsp + 0x68], 0
    0x81dc: movaps xmm1, xmm7
    0x81df: lea rcx, [rsp + 0x68]
    0x81e4: call 0x4cb30
    0x81e9: mov rbx, qword ptr [rip + 0x116388]
    0x81f0: xor r13d, r13d
    0x81f3: mov dword ptr [rsp + 0x68], r13d
    0x81f8: movups xmm0, xmmword ptr [rbx + 0xce0]
    0x81ff: movups xmmword ptr [rsp + 0x6c], xmm0
    0x8204: lea rcx, [rbx + 0x1e00]
    0x820b: lea rdx, [rsp + 0x68]
    0x8210: call 0x56060
    0x8215: cmp dword ptr [rbx + 0x1dfc], r13d
    0x821c: je 0x8243
    0x821e: mov dword ptr [rbx + 0xce0], r13d

================================================================================
  SUPPLEMENT S1: SYSCALL STUB COMPLETE ANALYSIS
================================================================================

S1.1 COMPLETE SYSCALL INSTRUCTION SITES
    Format: mov r10, rcx (4C 8B D1); mov eax, SSN (B8 XX XX XX XX); syscall (0F 05); ret (C3)

    Total syscall sites found: 9

    RVA 0xf304:
      Type: BARE_syscall
      SSN: unknown (no mov eax found nearby)
      Bytes: F3 0F 58 15 7C 7A 0F 00 44 89 74 24 20 41 B9 32 0F 05 16 48 8D 55 B0 49 8B CC E8 BD 39 05 00 0F
                                                             ^^-- 0F 05
    RVA 0x2eb95:
      Type: BARE_syscall
      SSN: unknown (no mov eax found nearby)
      Bytes: 8D 0D A5 3E 0D 00 89 58 04 41 B1 01 66 C7 40 08 0F 05 44 8B C3 48 8B D0 C6 40 0A C3 44 88 0D 0E
                                                             ^^-- 0F 05
    RVA 0x2fcc6:
      Type: BARE_syscall
      SSN: unknown (no mov eax found nearby)
      Bytes: 05 21 63 09 00 0F 94 C1 87 0D E8 1B 34 00 80 3D 0F 05 0F 00 00 48 8D 0D F6 3B 0D 00 48 0F 45 D0
                                                             ^^-- 0F 05
    RVA 0x30591:
      Type: BARE_syscall
      SSN: unknown (no mov eax found nearby)
      Bytes: 5B 18 34 00 48 85 DB 74 48 48 89 75 17 48 C7 45 0F 05 00 00 00 44 89 7D D7 FF 15 60 8E 08 00 45
                                                             ^^-- 0F 05
    RVA 0x30852:
      Type: BARE_syscall
      SSN: unknown (no mov eax found nearby)
      Bytes: 74 56 48 8B 1D 45 14 34 00 48 89 7D 17 48 C7 45 0F 05 00 00 00 44 89 75 7F FF 15 9F 8B 08 00 44
                                                             ^^-- 0F 05
    RVA 0x30cfe:
      Type: BARE_syscall
      SSN: unknown (no mov eax found nearby)
      Bytes: EE 10 34 00 48 85 DB 74 48 48 89 75 17 48 C7 45 0F 05 00 00 00 44 89 7D D7 FF 15 F3 86 08 00 45
                                                             ^^-- 0F 05
    RVA 0x30ff2:
      Type: BARE_syscall
      SSN: unknown (no mov eax found nearby)
      Bytes: 74 56 48 8B 1D A5 0C 34 00 48 89 7D 17 48 C7 45 0F 05 00 00 00 44 89 75 7F FF 15 FF 83 08 00 44
                                                             ^^-- 0F 05
    RVA 0x3458d:
      Type: BARE_syscall
      SSN: unknown (no mov eax found nearby)
      Bytes: 58 48 8D 15 63 00 0D 00 48 8D 0D 24 7E 0E 00 E8 0F 05 00 00 32 C0 EB 41 48 8D 15 A4 00 0D 00 48
                                                             ^^-- 0F 05
    RVA 0x112031:
      Type: BARE_syscall
      SSN: unknown (no mov eax found nearby)
      Bytes: 00 00 00 90 15 05 00 B7 15 05 00 D0 2F 11 00 01 0F 05 00 0F 78 0B 00 0B 01 1C 00 04 30 00 00 21
                                                             ^^-- 0F 05

================================================================================
  SUPPLEMENT S2: PATTERN SCANNER BINARY ANALYSIS
================================================================================

S2.1 EXACT PATTERN SCANNING ALGORITHM (from byte-level analysis)
    Searching for the byte-comparison loop characteristic of pattern scanning...

    Binary patterns in scanner region (0x6000-0x12000):

    0x6253: movzx byte
    0x6d10: movzx word
    0x71be: movzx byte
    0x71db: movzx byte
    0x727e: movzx byte
    0x74c5: movzx byte
    0x751f: movzx byte
    0x78b7: movzx word
    0x792a: movzx byte
    0x7a06: movzx byte
    0x7e55: movzx word
    0x87b8: movzx byte
    0x89f0: movzx byte
    0x916a: movzx byte
    0x9ad1: movzx byte
    ... total movzx instructions in scan region: 68

    Byte comparison patterns (cmp byte ptr [reg], imm):
    0xad71: cmp byte ptr, 0x00
    0xb0da: cmp byte ptr, 0x00
    0xc314: cmp byte ptr, 0x00
    ... total byte cmp in scan region: 3

================================================================================
  SUPPLEMENT S3: STRING REFERENCE EXTRACTION (improved)
================================================================================

S3.1 ALL STRING REFERENCES (null-terminated ASCII, >= 4 chars)
    Extracting all printable ASCII strings from the binary...

    Total printable strings (>=4 chars): 11736

    ALLOC: 47 strings
      0xb9c98: "bad allocation"
      0xbdae8: "__vectorcall"
      0xbdb84: " new"
      0xbdb90: " delete"
      0xbdc98: "`vector deleting destructor'"
      0xbdcf8: "`vector constructor iterator'"
      0xbdd18: "`vector destructor iterator'"
      0xbdd38: "`vector vbase constructor iterator'"
      0xbdd80: "`eh vector constructor iterator'"
      0xbdda8: "`eh vector destructor iterator'"
      ... (37 more)
    CHEATS: 87 strings
      0x52ecf: "xPLc"
      0x9579b: "D$XP"
      0xca292: "x86)\Steam\steamapps\common\Helldivers 2\bin/data/exploded_dat"
      0xcfd02: "x86)\Steam\steamapps\common\Helldivers 2\bin/data/exploded_dat"
      0xd4912: "x86)\Steam\steamapps\common\Helldivers 2\bin/data/exploded_dat"
      0xd94b2: "x86)\Steam\steamapps\common\Helldivers 2\bin/data/exploded_dat"
      0xde112: "x86)\Steam\steamapps\common\Helldivers 2\bin/data/exploded_dat"
      0xe2cb2: "x86)\Steam\steamapps\common\Helldivers 2\bin/data/exploded_dat"
      0xe7842: "x86)\Steam\steamapps\common\Helldivers 2\bin/data/exploded_dat"
      0xec3d2: "x86)\Steam\steamapps\common\Helldivers 2\bin/data/exploded_dat"
      ... (77 more)
    CRYPTO: 8 strings
      0xf87a0: "7])#######hV0qs'/###[),##/l:$#Q6>##5[n42>c-TH`->>#/e>11NNV=Bv(*:.F?uu#(gRU.o0XGH`$vhLG1hxt9?W`#,5LsCp#-i>.r$<$6pD>Lb';9Crc6tgXmKVeU2cD4Eo3R/2*>]b(MC;$jPfY.;h^`IWM9<Lh2TlS+f-s$o6Q<BWH`YiU.xfLq$N;$0iR/GX:U(jcW2p/W*q?-qmnUCI;jHSAiFWM.R*kU@C=GH?a9wp8f$e.-4^Qg1)Q-GL(lf(r/7GrRgwV%MS=C#`8ND>Qo#t'X#(v#Y9w0#1D$CIf;W'#pWUPXOuxXuU(H9M(1<q-UE31#^-V'8IRUo7Qf./L>=Ke$$'5F%)]0^#0X@U.a<r:QLtFsLcL6##lOj)#.Y5<-R&KgLwqJfLgN&;Q?gI^#DY2uLi@^rMl9t=cWq6##weg>$FBjVQTSDgEKnIS7EM9>ZY9w0#L;>>#Mx&4Mvt//L[MkA#W@lK.N'[0#7RL_&#w+F%HtG9M#XL`N&.,GM4Pg;-<nLENhvx>-VsM.M0rJfLH2eTM`*oJMHRC`NkfimM2J,W-jXS:)r0wK#@Fge$U>`w'N7G#$#fB#$E^$#:9:hk+eOe--6x)F7*E%?76%^GMHePW-Z5l'&GiF#$956:rS?dA#fiK:)Yr+`&#0j@'DbG&#^$PG.Ll+DNa<XCMKEV*N)LN/N*b=%Q6pia-Xg8I$<MR&,VdJe$<(7G;Ckl'&hF;;$<_=X(b.RS%%)###MPBuuE1V:v&cX&#2m#(&cV]`k9OhLMbn%s$G2,B$BfD3X*sp5#l,$R#]x_X1xKX%b5U*[r5iMfUo9U`N99hG)tm+/Us9pG)XPu`<0s-)WTt(gCRxIg(%6sfh=ktMKn3j)<6<b5Sk_/0(^]AaN#(p/L>&VZ>1i%h1S9u5o@YaaW$e+b<TWFn/Z:Oh(Cx2$lNEoN^e)#CFY@@I;BOQ*sRwZtZxRcU7uW6CXow0i(?$Q[cjOd[P4d)]>ROPOpxTO7Stwi1::iB1q)C_=dV26J;2,]7op$]uQr@_V7$q^%lQwtuHY]=DX,n3L#0PHDO4f9>dC@O>HBuKPpP*E,N+b3L#lpR/MrTEH.IAQk.a>D[.e;mc.x]Ip.PH^'/aqUO/$1WxLoW0[iLA<QT;5HKD+@qQ'NQ(3_PLhE48R.qAPSwQ0/WK?Z,[x?-J;jQTWA0X@KJ(_Y8N-:/M74:/-ZpKrUss?d#dZq]DAbkU*JqkL+nwX@@47`5>w=4h(9.`GCRUxHPeR`5Mjol(dUWxZa(>STrPkrJiWx`5U7F#.g*jrohGg`cg:lSTvEY/EV_7H4Q9[Z%cnv;JQYZ5q.l7Zeas:HOIZOB?G<Nald$qs]@]L<J7bR*>gv:[7MI2k).'2($5FNP&EQ(,)U]W]+fh18.vsai00);D3@4ku5P?DP8aJt+;qUM]=+b'8@;mViBKx0DE[-auGl8:PJ&Dj+M6OC]O^((##]`0i)drT;-7X`=-H3[igUnPG-NZlo.#k@h#=Ork$m>a>$-?Tm$UV(?#P6YY#'/###xe7q.73rI3*pP/$1>s9)W,JrM7SN]'/4C#v$U`0#V.[0>xQsH$fEmPMgY2u7Kh(G%siIfLSoS+MK2eTM$=5,M8p`A.;_R%#u[K#$x4AG8.kK/HSB==-'Ie/QTtG?-.*^N-4B/ZM_3YlQC7(p7q)&](`6_c)$/*JL(L-^(]$wIM`dPtOdGA,U3:w2M-0<q-]L_?^)1vw'.,MRsqVr.L;aN&#/EgJ)PBc[-f>+WomX2u7lqM2iEumMTcsF?-aT=Z-97UEnXglEn1K-bnEO`guFt(c%=;Am_Qs@jLooI&NX;]0#j4#F14;gl8-GQpgwhrq8'=l_f-b49'UOqkLu7-##oDY2L(te+Mch&gLYtJ,MEtJfLh'x'M=$CS-ZZ%P]8bZ>#S?YY#%Q&q'3^Fw&?D)UDNrocM3A76//oL?#h7gl85[qW/NDOk%16ij;+:1a'iNIdb-ou8.P*w,v5#EI$TWS>Pot-R*H'-SEpA:g)f+O$%%`kA#G=8RMmG1&O`>to8bC]T&$,n.LoO>29sp3dt-52U%VM#q7'DHpg+#Z9%H[K<L%a2E-grWVM3@2=-k22tL]4$##6We'8UJCKE[d_=%wI;'6X-GsLX4j^SgJ$##R*w,vP3wK#iiW&#*h^D&R?jp7+/u&#(AP##XU8c$fSYW-J95_-Dp[g9wcO&#M-h1OcJlc-*vpw0xUX&#OQFKNX@QI'IoPp7nb,QU//MQ&ZDkKP)X<WSVL(68uVl&#c'[0#(s1X&xm$Y%B7*K:eDA323j998GXbA#pwMs-jgD$9QISB-A_(aN4xoFM^@C58D0+Q+q3n0#3U1InDjF682-SjMXJK)(h$hxua_K]ul92%'BOU&#BRRh-slg8KDlr:%L71Ka:.A;%YULjDPmL<LYs8i#XwJOYaKPKc1h:'9Ke,g)b),78=I39B;xiY$bgGw-&.Zi9InXDuYa%G*f2Bq7mn9^#p1vv%#(Wi-;/Z5ho;#2:;%d&#x9v68C5g?ntX0X)pT`;%pB3q7mgGN)3%(P8nTd5L7GeA-GL@+%J3u2:(Yf>et`e;)f#Km8&+DC$I46>#Kr]]u-[=99tts1.qb#q72g1WJO81q+eN'03'eM>&1XxY-caEnOj%2n8)),?ILR5^.Ibn<-X-Mq7[a82Lq:F&#ce+S9wsCK*x`569E8ew'He]h:sI[2LM$[guka3ZRd6:t%IG:;$%YiJ:Nq=?eAw;/:nnDq0(CYcMpG)qLN4$##&J<j$UpK<Q4a1]MupW^-sj_$%[HK%'F####QRZJ::Y3EGl4'@%FkiAOg#p[##O`gukTfBHagL<LHw%q&OV0##F=6/:chIm0@eCP8X]:kFI%hl8hgO@RcBhS-@Qb$%+m=hPDLg*%K8ln(wcf3/'DW-$.lR?n[nCH-eXOONTJlh:.RYF%3'p6sq:UIMA945&^HFS87@$EP2iG<-lCO$%c`uKGD3rC$x0BL8aFn--`ke%#HMP'vh1/R&O_J9'um,.<tx[@%wsJk&bUT2`0uMv7gg#qp/ij.L56'hl;.s5CUrxjOM7-##.l+Au'A&O:-T72L]P`&=;ctp'XScX*rU.>-XTt,%OVU4)S1+R-#dg0/Nn?Ku1^0f$B*P:Rowwm-`0PKjYDDM'3]d39VZHEl4,.j']Pk-M.h^&:0FACm$maq-&sgw0t7/6(^xtk%LuH88Fj-ekm>GA#_>568x6(OFRl-IZp`&b,_P'$M<Jnq79VsJW/mWS*PUiq76;]/NM_>hLbxfc$mj`,O;&%W2m`Zh:/)Uetw:aJ%]K9h:TcF]u_-Sj9,VK3M.*'&0D[Ca]J9gp8,kAW]%(?A%R$f<->Zts'^kn=-^@c4%-pY6qI%J%1IGxfLU9CP8cbPlXv);C=b),<2mOvP8up,UVf3839acAWAW-W?#ao/^#%KYo8fRULNd2.>%m]UK:n%r$'sw]J;5pAoO_#2mO3n,'=H5(etHg*`+RLgv>=4U8guD$I%D:W>-r5V*%j*W:Kvej.Lp$<M-SGZ':+Q_k+uvOSLiEo(<aD/K<CCc`'Lx>'?;++O'>()jLR-^u68PHm8ZFWe+ej8h:9r6L*0//c&iH&R8pRbA#Kjm%upV1g:a_#Ur7FuA#(tRh#.Y5K+@?3<-8m0$PEn;J:rh6?I6uG<-`wMU'ircp0LaE_OtlMb&1#6T.#FDKu#1Lw%u%+GM+X'e?YLfjM[VO0MbuFp7;>Q&#WIo)0@F%q7c#4XAXN-U&VB<HFF*qL($/V,;(kXZejWO`<[5??ewY(*9=%wDc;,u<'9t3W-(H1th3+G]ucQ]kLs7df($/*JL]@*t7Bu_G3_7mp7<iaQjO@.kLg;x3B0lqp7Hf,^Ze7-##@/c58Mo(3;knp0%)A7?-W+eI'o8)b<nKnw'Ho8C=Y>pqB>0ie&jhZ[?iLR@@_AvA-iQC(=ksRZRVp7`.=+NpBC%rh&3]R:8XDmE5^V8O(x<<aG/1N$#FX$0V5Y6x'aErI3I$7x%E`v<-BY,)%-?Psf*l?%C3.mM(=/M0:JxG'?7WhH%o'a<-80g0NBxoO(GH<dM]n.+%q@jH?f.UsJ2Ggs&4<-e47&Kl+f//9@`b+?.TeN_&B8Ss?v;^Trk;f#YvJkl&w$]>-+k?'(<S:68tq*WoDfZu';mM?8X[ma8W%*`-=;D.(nc7/;)g:T1=^J$&BRV(-lTmNB6xqB[@0*o.erM*<SWF]u2=st-*(6v>^](H.aREZSi,#1:[IXaZFOm<-ui#qUq2$##Ri;u75OK#(RtaW-K-F`S+cF]uN`-KMQ%rP/Xri.LRcB##=YL3BgM/3MD?@f&1'BW-)Ju<L25gl8uhVm1hL$##*8###'A3/LkKW+(^rWX?5W_8g)a(m&K8P>#bmmWCMkk&#TR`C,5d>g)F;t,4:@_l8G/5h4vUd%&%950:VXD'QdWoY-F$BtUwmfe$YqL'8(PWX(P?^@Po3$##`MSs?DWBZ/S>+4%>fX,VWv/w'KD`LP5IbH;rTV>n3cEK8U#bX]l-/V+^lj3;vlMb&[5YQ8#pekX9JP3XUC72L,,?+Ni&co7ApnO*5NK,((W-i:$,kp'UDAO(G0Sq7MVjJsbIu)'Z,*[>br5fX^:FPAWr-m2KgL<LUN098kTF&#lvo58=/vjDo;.;)Ka*hLR#/k=rKbxuV`>Q_nN6'8uTG&#1T5g)uLv:873UpTLgH+#FgpH'_o1780Ph8KmxQJ8#H72L4@768@Tm&Qh4CB/5OvmA&,Q&QbUoi$a_%3M01H)4x7I^&KQVgtFnV+;[Pc>[m4k//,]1?#`VY[Jr*3&&slRfLiVZJ:]?=K3Sw=[$=uRB?3xk48@aeg<Z'<$#4H)6,>e0jT6'N#(q%.O=?2S]u*(m<-V8J'(1)G][68hW$5'q[GC&5j`TE?m'esFGNRM)j,ffZ?-qx8;->g4t*:CIP/[Qap7/9'#(1sao7w-.qNUdkJ)tCF&#B^;xGvn2r9FEPFFFcL@.iFNkTve$m%#QvQS8U@)2Z+3K:AKM5isZ88+dKQ)W6>J%CL<KE>`.d*(B`-n8D9oK<Up]c$X$(,)M8Zt7/[rdkqTgl-0cuGMv'?>-XV1q['-5k'cAZ69e;D_?$ZPP&s^+7])$*$#@QYi9,5P&#9r+$%CE=68>K8r0=dSC%%(@p7.m7jilQ02'0-VWAg<a/''3u.=4L$Y)6k/K:_[3=&jvL<L0C/2'v:^;-DIBW,B4E68:kZ;%?8(Q8BH=kO65BW?xSG&#@uU,DS*,?.+(o(#1vCS8#CHF>TlGW'b)Tq7VT9q^*^$$.:&N@@$&)WHtPm*5_rO0&e%K&#-30j(E4#'Zb.o/(Tpm$>K'f@[PvFl,hfINTNU6u'0pao7%XUp9]5.>%h`8_=VYbxuel.NTSsJfLacFu3B'lQSu/m6-Oqem8T+oE--$0a/k]uj9EwsG>%veR*hv^BFpQj:K'#SJ,sB-'#](j.Lg92rTw-*n%@/;39rrJF,l#qV%OrtBeC6/,;qB3ebNW[?,Hqj2L.1NP&GjUR=1D8QaS3Up&@*9wP?+lo7b?@%'k4`p0Z$22%K3+iCZj?XJN4Nm&+YF]u@-W$U%VEQ/,,>>#)D<h#`)h0:<Q6909ua+&VU%n2:cG3FJ-%@Bj-DgLr`Hw&HAKjKjseK</xKT*)B,N9X3]krc12t'pgTV(Lv-tL[xg_%=M_q7a^x?7Ubd>#%8cY#YZ?=,`Wdxu/ae&#w6)R89tI#6@s'(6Bf7a&?S=^ZI_kS&ai`&=tE72L_D,;^R)7[$s<Eh#c&)q.MXI%#v9ROa5FZO%sF7q7Nwb&#ptUJ:aqJe$Sl68%.D###EC><?-aF&#RNQv>o8lKN%5/$(vdfq7+ebA#u1p]ovUKW&Y%q]'>$1@-[xfn$7ZTp7mM,G,Ko7a&Gu%G[RMxJs[0MM%wci.LFDK)(<c`Q8N)jEIF*+?P2a8g%)$q]o2aH8C&<SibC/q,(e:v;-b#6[$NtDZ84Je2KNvB#$P5?tQ3nt(0d=j.LQf./Ll33+(;q3L-w=8dX$#WF&uIJ@-bfI>%:_i2B5CsR8&9Z&#=mPEnm0f`<&c)QL5uJ#%u%lJj+D-r;BoF&#4DoS97h5g)E#o:&S4weDF,9^Hoe`h*L+_a*NrLW-1pG_&2UdB86e%B/:=>)N4xeW.*wft-;$'58-ESqr<b?UI(_%@[P46>#U`'6AQ]m&6/`Z>#S?YY#Vc;r7U2&326d=w&H####?TZ`*4?&.MK?LP8Vxg>$[QXc%QJv92.(Db*B)gb*BM9dM*hJMAo*c&#b0v=Pjer]$gG&JXDf->'StvU7505l9$AFvgYRI^&<^b68?j#q9QX4SM'RO#&sL1IM.rJfLUAj221]d##DW=m83u5;'bYx,*Sl0hL(W;;$doB&O/TQ:(Z^xBdLjL<Lni;''X.`$#8+1GD:k$YUWsbn8ogh6rxZ2Z9]%nd+>V#*8U_72Lh+2Q8Cj0i:6hp&$C/:p(HK>T8Y[gHQ4`4)'$Ab(Nof%V'8hL&#<NEdtg(n'=S1A(Q1/I&4([%dM`,Iu'1:_hL>SfD07&6D<fp8dHM7/g+tlPN9J*rKaPct&?'uBCem^jn%9_K)<,C5K3s=5g&GmJb*[SYq7K;TRLGCsM-$$;S%:Y@r7AK0pprpL<Lrh,q7e/%KWK:50I^+m'vi`3?%Zp+<-d+$L-Sv:@.o19n$s0&39;kn;S%BSq*$3WoJSCLweV[aZ'MQIjO<7;X-X;&+dMLvu#^UsGEC9WEc[X(wI7#2.(F0jV*eZf<-Qv3J-c+J5AlrB#$p(H68LvEA'q3n0#m,[`*8Ft)FcYgEud]CWfm68,(aLA$@EFTgLXoBq/UPlp7:d[/;r_ix=:TF`S5H-b<LI&HY(K=h#)]Lk$K14lVfm:x$H<3^Ql<M`$OhapBnkup'D#L$Pb_`N*g]2e;X/Dtg,bsj&K#2[-:iYr'_wgH)NUIR8a1n#S?Yej'h8^58UbZd+^FKD*T@;6A7aQC[K8d-(v6GI$x:T<&'Gp5Uf>@M.*J:;$-rv29'M]8qMv-tLp,'886iaC=Hb*YJoKJ,(j%K=H`K.v9HggqBIiZu'QvBT.#=)0ukruV&.)3=(^1`o*Pj4<-<aN((^7('#Z0wK#5GX@7u][`*S^43933A4rl][`*O4CgLEl]v$1Q3AeF37dbXk,.)vj#x'd`;qgbQR%FW,2(?LO=s%Sc68%NP'##Aotl8x=BE#j1UD([3$M(]UI2LX3RpKN@;/#f'f/&_mt&F)XdF<9t4)Qa.*kTLwQ'(TTB9.xH'>#MJ+gLq9-##@HuZPN0]u:h7.T..G:;$/Usj(T7`Q8tT72LnYl<-qx8;-HV7Q-&Xdx%1a,hC=0u+HlsV>nuIQL-5<N?)NBS)QN*_I,?&)2'IM%L3I)X((e/dl2&8'<M:^#M*Q+[T.Xri.LYS3v%fF`68h;b-X[/En'CR.q7E)p'/kle2HM,u;^%OKC-N+Ll%F9CF<Nf'^#t2L,;27W:0O@6##U6W7:$rJfLWHj$#)woqBefIZ.PK<b*t7ed;p*_m;4ExK#h@&]>_>@kXQtMacfD.m-VAb8;IReM3$wf0''hra*so568'Ip&vRs849'MRYSp%:t:h5qSgwpEr$B>Q,;s(C#$)`svQuF$##-D,##,g68@2[T;.XSdN9Qe)rpt._K-#5wF)sP'##p#C0c%-Gb%hd+<-j'Ai*x&&HMkT]C'OSl##5RG[JXaHN;d'uA#x._U;.`PU@(Z3dt4r152@:v,'R.Sj'w#0<-;kPI)FfJ&#AYJ&#//)>-k=m=*XnK$>=)72L]0I%>.G690a:$##<,);?;72#?x9+d;^V'9;jY@;)br#q^YQpx:X#Te$Z^'=-=bGhLf:D6&bNwZ9-ZD#n^9HhLMr5G;']d&6'wYmTFmL<LD)F^%[tC'8;+9E#C$g%#5Y>q9wI>P(9mI[>kC-ekLC/R&CH+s'B;K-M6$EB%is00:+A4[7xks.LrNk0&E)wILYF@2L'0Nb$+pv<(2.768/FrY&h$^3i&@+G%JT'<-,v`3;_)I9M^AE]CN?Cl2AZg+%4iTpT3<n-&%H%b<FDj2M<hH=&Eh<2Len$b*aTX=-8QxN)k11IM1c^j%9s<L<NFSo)B?+<-(GxsF,^-Eh@$4dXhN$+#rxK8'je'D7k`e;)2pYwPA'_p9&@^18ml1^[@g4t*[JOa*[=Qp7(qJ_oOL^('7fB&Hq-:sf,sNj8xq^>$U4O]GKx'm9)b@p7YsvK3w^YR-CdQ*:Ir<($u&)#(&?L9Rg3H)4fiEp^iI9O8KnTj,]H?D*r7'M;PwZ9K0E^k&-cpI;.p/6_vwoFMV<->#%Xi.LxVnrU(4&8/P+:hLSKj$#U%]49t'I:rgMi'FL@a:0Y-uA[39',(vbma*hU%<-SRF`Tt:542R_VV$p@[p8DV[A,?1839FWdF<TddF<9Ah-6&9tWoDlh]&1SpGMq>Ti1O*H&#(AL8[_P%.M>v^-))qOT*F5Cq0`Ye%+$B6i:7@0IX<N+T+0MlMBPQ*Vj>SsD<U4JHY8kD2)2fU/M#$e.)T4,_=8hLim[&);?UkK'-x?'(:siIfL<$pFM`i<?%W(mGDHM%>iWP,##P`%/L<eXi:@Z9C.7o=@(pXdAO/NLQ8lPl+HPOQa8wD8=^GlPa8TKI1CjhsCTSLJM'/Wl>-S(qw%sf/@%#B6;/U7K]uZbi^Oc^2n<bhPmUkMw>%t<)'mEVE''n`WnJra$^TKvX5B>;_aSEK',(hwa0:i4G?.Bci.(X[?b*($,=-n<.Q%`(X=?+@Am*Js0&=3bh8K]mL<LoNs'6,'85`0?t/'_U59@]ddF<#LdF<eWdF<OuN/45rY<-L@&#+fm>69=Lb,OcZV/);TTm8VI;?%OtJ<(b4mq7M6:u?KRdF<gR@2L=FNU-<b[(9c/ML3m;Z[$oF3g)GAWqpARc=<ROu7cL5l;-[A]%/+fsd;l#SafT/f*W]0=O'$(Tb<[)*@e775R-:Yob%g*>l*:xP?Yb.5)%w_I?7uk5JC+FS(m#i'k.'a0i)9<7b'fs'59hq$*5Uhv##pi^8+hIEBF`nvo`;'l0.^S1<-wUK2/Coh58KKhLjM=SO*rfO`+qC`W-On.=AJ56>>i2@2LH6A:&5q`?9I3@@'04&p2/LVa*T-4<-i3;M9UvZd+N7>b*eIwg:CC)c<>nO&#<IGe;__.thjZl<%w(Wk2xmp4Q@I#I9,DF]u7-P=.-_:YJ]aS@V?6*C()dOp7:WL,b&3Rg/.cmM9&r^>$(>.Z-I&J(Q0Hd5Q%7Co-b`-c<N(6r@ip+AurK<m86QIth*#v;-OBqi+L7wDE-Ir8K['m+DDSLwK&/.?-V%U_%3:qKNu$_b*B-kp7NaD'QdWQPKYq[@>P)hI;*_F]u`Rb[.j8_Q/<&>uu+VsH$sM9TA%?)(vmJ80),P7E>)tjD%2L=-t#fK[%`v=Q8<FfNkgg^oIbah*#8/Qt$F&:K*-(N/'+1vMB,u()-a.VUU*#[e%gAAO(S>WlA2);Sa>gXm8YB`1d@K#n]76-a$U,mF<fX]idqd)<3,]J7JmW4`6]uks=4-72L(jEk+:bJ0M^q-8Dm_Z?0olP1C9Sa&H[d&c$ooQUj]Exd*3ZM@-WGW2%s',B-_M%>%Ul:#/'xoFM9QX-$.QN'>[%$Z$uF6pA6Ki2O5:8w*vP1<-1`[G,)-m#>0`P&#eb#.3i)rtB61(o'$?X3B</R90;eZ]%Ncq;-Tl]#F>2Qft^ae_5tKL9MUe9b*sLEQ95C&`=G?@Mj=wh*'3E>=-<)Gt*Iw)'QG:`@IwOf7&]1i'S01B+Ev/Nac#9S;=;YQpg_6U`*kVY39xK,[/6Aj7:'1Bm-_1EYfa1+o&o4hp7KN_Q(OlIo@S%;jVdn0'1<Vc52=u`3^o-n1'g4v58Hj&6_t7$##?M)c<$bgQ_'SY((-xkA#Y(,p'H9rIVY-b,'%bCPF7.J<Up^,(dU1VY*5#WkTU>h19w,WQhLI)3S#f$2(eb,jr*b;3Vw]*7NH%$c4Vs,eD9>XW8?N]o+(*pgC%/72LV-u<Hp,3@e^9UB1J+ak9-TN/mhKPg+AJYd$MlvAF_jCK*.O-^(63adMT->W%iewS8W6m2rtCpo'RS1R84=@paTKt)>=%&1[)*vp'u+x,VrwN;&]kuO9JDbg=pO$J*.jVe;u'm0dr9l,<*wMK*Oe=g8lV_KEBFkO'oU]^=[-792#ok,)i]lR8qQ2oA8wcRCZ^7w/Njh;?.stX?Q1>S1q4Bn$)K1<-rGdO'$Wr.Lc.CG)$/*JL4tNR/,SVO3,aUw'DJN:)Ss;wGn9A32ijw%FL+Z0Fn.U9;reSq)bmI32U==5ALuG&#Vf1398/pVo1*c-(aY168o<`JsSbk-,1N;$>0:OUas(3:8Z972LSfF8eb=c-;>SPw7.6hn3m`9^Xkn(r.qS[0;T%&Qc=+STRxX'q1BNk3&*eu2;&8q$&x>Q#Q7^Tf+6<(d%ZVmj2bDi%.3L2n+4W'$PiDDG)g,r%+?,$@?uou5tSe2aN_AQU*<h`e-GI7)?OK2A.d7_c)?wQ5AS@DL3r#7fSkgl6-++D:'A,uq7SvlB$pcpH'q3n0#_%dY#xCpr-l<F0NR@-##FEV6NTF6##$l84N1w?AO>'IAOURQ##V^Fv-XFbGM7Fl(N<3DhLGF%q.1rC$#:T__&Pi68%0xi_&[qFJ(77j_&JWoF.V735&T,[R*:xFR*K5>>#`bW-?4Ne_&6Ne_&6Ne_&n`kr-#GJcM6X;uM6X;uM(.a..^2TkL%oR(#;u.T%fAr%4tJ8&><1=GHZ_+m9/#H1F^R#SC#*N=BA9(D?v[UiFY>>^8p,KKF.W]L29uLkLlu/+4T<XoIB&hx=T1PcDaB&;HH+-AFr?(m9HZV)FKS8JCw;SD=6[^/DZUL`EUDf]GGlG&>w$)F./^n3+rlo+DB;5sIYGNk+i1t-69Jg--0pao7Sm#K)pdHW&;LuDNH@H>#/X-TI(;P>#,Gc>#0Su>#4`1?#8lC?#<xU?#@.i?#D:%@#HF7@#LRI@#P_[@#Tkn@#Xw*A#]-=A#a9OA#d<F&#*;G##.GY##2Sl##6`($#:l:$#>xL$#B.`$#F:r$#JF.%#NR@%#R_R%#Vke%#Zww%#_-4&#3^Rh%Sflr-k'MS.o?.5/sWel/wpEM0%3'/1)K^f1-d>G21&v(35>V`39V7A4=onx4A1OY5EI0;6Ibgr6M$HS7Q<)58C5w,;WoA*#[%T*#`1g*#d=#+#hI5+#lUG+#pbY+#tnl+#x$),#&1;,#*=M,#.I`,#2Ur,#6b.-#;w[H#iQtA#m^0B#qjBB#uvTB##-hB#'9$C#+E6C#/QHC#3^ZC#7jmC#;v)D#?,<D#C8ND#GDaD#KPsD#O]/E#g1A5#KA*1#gC17#MGd;#8(02#L-d3#rWM4#Hga1#,<w0#T.j<#O#'2#CYN1#qa^:#_4m3#o@/=#eG8=#t8J5#`+78#4uI-#m3B2#SB[8#Q0@8#i[*9#iOn8#1Nm;#^sN9#qh<9#:=x-#P;K2#$%X9#bC+.#Rg;<#mN=.#MTF.#RZO.#2?)4#Y#(/#[)1/#b;L/#dAU/#0Sv;#lY$0#n`-0#sf60#(F24#wrH0#%/e0#TmD<#%JSMFove:CTBEXI:<eh2g)B,3h2^G3i;#d3jD>)4kMYD4lVu`4m`:&5niUA5@(A5BA1]PBB:xlBCC=2CDLXMCEUtiCf&0g2'tN?PGT4CPGT4CPGT4CPGT4CPGT4CPGT4CPGT4CPGT4CPGT4CPGT4CPGT4CPGT4CPGT4CP-qekC`.9kEg^+F$kwViFJTB&5KTB&5KTB&5KTB&5KTB&5KTB&5KTB&5KTB&5KTB&5KTB&5KTB&5KTB&5KTB&5KTB&5KTB&5o,^<-28ZI'O?;xpO?;xpO?;xpO?;xpO?;xpO?;xpO?;xpO?;xpO?;xpO?;xpO?;xpO?;xpO?;xpO?;xp;7q-#lLYI:xvD=#"
      0xfe100: "GS-17 Frontier Marshall"
      0xfe2f8: "RS-89 Shadow Paragon"
      0xfe310: "RS-67 Null Cipher"
      0x102238: "[SIG-CAPTURE] SINGLE #%d bufLen=%lu bodyXorLen=%lu nonce=%s"
      0x102800: "bcrypt.dll"
      0x102810: "BCryptHashData"
      0x1034d0: "NOP both hash table INSERT calls that mark SC entities as collected"
    FILEIO: 7 strings
      0xc5c78: "libertea_replay_cap.json"
      0xc5db8: "game.dll"
      0xc5dc8: "game.dll not loaded"
      0x100a38: "ntdll.dll"
      0x1029c0: "[Features] ntdll.dll handle: %p"
      0x102a20: "%s\ntdll.dll"
      0x104548: "AOB not found in game.dll"
    HOOKING: 70 strings
      0x884e9: " !"#$%&'()*+,-./012345678uu9:;<=>?@ABCDuEFGHIJKLMNOPQRSTUVWXYZ[\]^_uuuuuuuu`auuuuuuuuuuuuuubcdefghiuuuuuuuuuuuuuuuuuujklmnopuuuuuuuuuuuuuuuuuuuuuuuuuuqrst"
      0xbd138: "0123456789abcdefghijklmnopqrstuvwxyz"
      0xbd188: "0123456789abcdefghijklmnopqrstuvwxyz"
      0xbf4d0: " !"#$%&'()*+,-./0123456789:;<=>?@abcdefghijklmnopqrstuvwxyz[\]^_`abcdefghijklmnopqrstuvwxyz{|}~"
      0xbf650: " !"#$%&'()*+,-./0123456789:;<=>?@ABCDEFGHIJKLMNOPQRSTUVWXYZ[\]^_`ABCDEFGHIJKLMNOPQRSTUVWXYZ{|}~"
      0xf7b20: "ABCDEFGHIJKLMNOPQRSTUVWXYZabcdefghijklmnopqrstuvwxyz0123456789+/"
      0xfe5f8: "Scanning..."
      0xfe760: "Do not close game -- dispatching..."
      0xfe7e0: "All replays dispatched."
      0xff008: "Last replay: %d slot(s) patched"
      ... (60 more)
    HTTP: 49 strings
      0xc624c: "https://api.live.prod.thehelldiversgame.com/api/Operation/Mission/end"
      0xc6ed0: "https://api.live.prod.thehelldiversgame.com/api/Operation/Mission/end"
      0xcafbc: "https://api.live.prod.thehelldiversgame.com/api/Operation/Mission/end"
      0xcbcc0: "https://api.live.prod.thehelldiversgame.com/api/Operation/Mission/end"
      0xd093c: "https://api.live.prod.thehelldiversgame.com/api/Operation/Mission/end"
      0xd15c0: "https://api.live.prod.thehelldiversgame.com/api/Operation/Mission/end"
      0xd54dc: "https://api.live.prod.thehelldiversgame.com/api/Operation/Mission/end"
      0xd6160: "https://api.live.prod.thehelldiversgame.com/api/Operation/Mission/end"
      0xda07c: "https://api.live.prod.thehelldiversgame.com/api/Operation/Mission/end"
      0xdad10: "https://api.live.prod.thehelldiversgame.com/api/Operation/Mission/end"
      ... (39 more)
    IMGUI: 135 strings
      0xf87a0: "7])#######hV0qs'/###[),##/l:$#Q6>##5[n42>c-TH`->>#/e>11NNV=Bv(*:.F?uu#(gRU.o0XGH`$vhLG1hxt9?W`#,5LsCp#-i>.r$<$6pD>Lb';9Crc6tgXmKVeU2cD4Eo3R/2*>]b(MC;$jPfY.;h^`IWM9<Lh2TlS+f-s$o6Q<BWH`YiU.xfLq$N;$0iR/GX:U(jcW2p/W*q?-qmnUCI;jHSAiFWM.R*kU@C=GH?a9wp8f$e.-4^Qg1)Q-GL(lf(r/7GrRgwV%MS=C#`8ND>Qo#t'X#(v#Y9w0#1D$CIf;W'#pWUPXOuxXuU(H9M(1<q-UE31#^-V'8IRUo7Qf./L>=Ke$$'5F%)]0^#0X@U.a<r:QLtFsLcL6##lOj)#.Y5<-R&KgLwqJfLgN&;Q?gI^#DY2uLi@^rMl9t=cWq6##weg>$FBjVQTSDgEKnIS7EM9>ZY9w0#L;>>#Mx&4Mvt//L[MkA#W@lK.N'[0#7RL_&#w+F%HtG9M#XL`N&.,GM4Pg;-<nLENhvx>-VsM.M0rJfLH2eTM`*oJMHRC`NkfimM2J,W-jXS:)r0wK#@Fge$U>`w'N7G#$#fB#$E^$#:9:hk+eOe--6x)F7*E%?76%^GMHePW-Z5l'&GiF#$956:rS?dA#fiK:)Yr+`&#0j@'DbG&#^$PG.Ll+DNa<XCMKEV*N)LN/N*b=%Q6pia-Xg8I$<MR&,VdJe$<(7G;Ckl'&hF;;$<_=X(b.RS%%)###MPBuuE1V:v&cX&#2m#(&cV]`k9OhLMbn%s$G2,B$BfD3X*sp5#l,$R#]x_X1xKX%b5U*[r5iMfUo9U`N99hG)tm+/Us9pG)XPu`<0s-)WTt(gCRxIg(%6sfh=ktMKn3j)<6<b5Sk_/0(^]AaN#(p/L>&VZ>1i%h1S9u5o@YaaW$e+b<TWFn/Z:Oh(Cx2$lNEoN^e)#CFY@@I;BOQ*sRwZtZxRcU7uW6CXow0i(?$Q[cjOd[P4d)]>ROPOpxTO7Stwi1::iB1q)C_=dV26J;2,]7op$]uQr@_V7$q^%lQwtuHY]=DX,n3L#0PHDO4f9>dC@O>HBuKPpP*E,N+b3L#lpR/MrTEH.IAQk.a>D[.e;mc.x]Ip.PH^'/aqUO/$1WxLoW0[iLA<QT;5HKD+@qQ'NQ(3_PLhE48R.qAPSwQ0/WK?Z,[x?-J;jQTWA0X@KJ(_Y8N-:/M74:/-ZpKrUss?d#dZq]DAbkU*JqkL+nwX@@47`5>w=4h(9.`GCRUxHPeR`5Mjol(dUWxZa(>STrPkrJiWx`5U7F#.g*jrohGg`cg:lSTvEY/EV_7H4Q9[Z%cnv;JQYZ5q.l7Zeas:HOIZOB?G<Nald$qs]@]L<J7bR*>gv:[7MI2k).'2($5FNP&EQ(,)U]W]+fh18.vsai00);D3@4ku5P?DP8aJt+;qUM]=+b'8@;mViBKx0DE[-auGl8:PJ&Dj+M6OC]O^((##]`0i)drT;-7X`=-H3[igUnPG-NZlo.#k@h#=Ork$m>a>$-?Tm$UV(?#P6YY#'/###xe7q.73rI3*pP/$1>s9)W,JrM7SN]'/4C#v$U`0#V.[0>xQsH$fEmPMgY2u7Kh(G%siIfLSoS+MK2eTM$=5,M8p`A.;_R%#u[K#$x4AG8.kK/HSB==-'Ie/QTtG?-.*^N-4B/ZM_3YlQC7(p7q)&](`6_c)$/*JL(L-^(]$wIM`dPtOdGA,U3:w2M-0<q-]L_?^)1vw'.,MRsqVr.L;aN&#/EgJ)PBc[-f>+WomX2u7lqM2iEumMTcsF?-aT=Z-97UEnXglEn1K-bnEO`guFt(c%=;Am_Qs@jLooI&NX;]0#j4#F14;gl8-GQpgwhrq8'=l_f-b49'UOqkLu7-##oDY2L(te+Mch&gLYtJ,MEtJfLh'x'M=$CS-ZZ%P]8bZ>#S?YY#%Q&q'3^Fw&?D)UDNrocM3A76//oL?#h7gl85[qW/NDOk%16ij;+:1a'iNIdb-ou8.P*w,v5#EI$TWS>Pot-R*H'-SEpA:g)f+O$%%`kA#G=8RMmG1&O`>to8bC]T&$,n.LoO>29sp3dt-52U%VM#q7'DHpg+#Z9%H[K<L%a2E-grWVM3@2=-k22tL]4$##6We'8UJCKE[d_=%wI;'6X-GsLX4j^SgJ$##R*w,vP3wK#iiW&#*h^D&R?jp7+/u&#(AP##XU8c$fSYW-J95_-Dp[g9wcO&#M-h1OcJlc-*vpw0xUX&#OQFKNX@QI'IoPp7nb,QU//MQ&ZDkKP)X<WSVL(68uVl&#c'[0#(s1X&xm$Y%B7*K:eDA323j998GXbA#pwMs-jgD$9QISB-A_(aN4xoFM^@C58D0+Q+q3n0#3U1InDjF682-SjMXJK)(h$hxua_K]ul92%'BOU&#BRRh-slg8KDlr:%L71Ka:.A;%YULjDPmL<LYs8i#XwJOYaKPKc1h:'9Ke,g)b),78=I39B;xiY$bgGw-&.Zi9InXDuYa%G*f2Bq7mn9^#p1vv%#(Wi-;/Z5ho;#2:;%d&#x9v68C5g?ntX0X)pT`;%pB3q7mgGN)3%(P8nTd5L7GeA-GL@+%J3u2:(Yf>et`e;)f#Km8&+DC$I46>#Kr]]u-[=99tts1.qb#q72g1WJO81q+eN'03'eM>&1XxY-caEnOj%2n8)),?ILR5^.Ibn<-X-Mq7[a82Lq:F&#ce+S9wsCK*x`569E8ew'He]h:sI[2LM$[guka3ZRd6:t%IG:;$%YiJ:Nq=?eAw;/:nnDq0(CYcMpG)qLN4$##&J<j$UpK<Q4a1]MupW^-sj_$%[HK%'F####QRZJ::Y3EGl4'@%FkiAOg#p[##O`gukTfBHagL<LHw%q&OV0##F=6/:chIm0@eCP8X]:kFI%hl8hgO@RcBhS-@Qb$%+m=hPDLg*%K8ln(wcf3/'DW-$.lR?n[nCH-eXOONTJlh:.RYF%3'p6sq:UIMA945&^HFS87@$EP2iG<-lCO$%c`uKGD3rC$x0BL8aFn--`ke%#HMP'vh1/R&O_J9'um,.<tx[@%wsJk&bUT2`0uMv7gg#qp/ij.L56'hl;.s5CUrxjOM7-##.l+Au'A&O:-T72L]P`&=;ctp'XScX*rU.>-XTt,%OVU4)S1+R-#dg0/Nn?Ku1^0f$B*P:Rowwm-`0PKjYDDM'3]d39VZHEl4,.j']Pk-M.h^&:0FACm$maq-&sgw0t7/6(^xtk%LuH88Fj-ekm>GA#_>568x6(OFRl-IZp`&b,_P'$M<Jnq79VsJW/mWS*PUiq76;]/NM_>hLbxfc$mj`,O;&%W2m`Zh:/)Uetw:aJ%]K9h:TcF]u_-Sj9,VK3M.*'&0D[Ca]J9gp8,kAW]%(?A%R$f<->Zts'^kn=-^@c4%-pY6qI%J%1IGxfLU9CP8cbPlXv);C=b),<2mOvP8up,UVf3839acAWAW-W?#ao/^#%KYo8fRULNd2.>%m]UK:n%r$'sw]J;5pAoO_#2mO3n,'=H5(etHg*`+RLgv>=4U8guD$I%D:W>-r5V*%j*W:Kvej.Lp$<M-SGZ':+Q_k+uvOSLiEo(<aD/K<CCc`'Lx>'?;++O'>()jLR-^u68PHm8ZFWe+ej8h:9r6L*0//c&iH&R8pRbA#Kjm%upV1g:a_#Ur7FuA#(tRh#.Y5K+@?3<-8m0$PEn;J:rh6?I6uG<-`wMU'ircp0LaE_OtlMb&1#6T.#FDKu#1Lw%u%+GM+X'e?YLfjM[VO0MbuFp7;>Q&#WIo)0@F%q7c#4XAXN-U&VB<HFF*qL($/V,;(kXZejWO`<[5??ewY(*9=%wDc;,u<'9t3W-(H1th3+G]ucQ]kLs7df($/*JL]@*t7Bu_G3_7mp7<iaQjO@.kLg;x3B0lqp7Hf,^Ze7-##@/c58Mo(3;knp0%)A7?-W+eI'o8)b<nKnw'Ho8C=Y>pqB>0ie&jhZ[?iLR@@_AvA-iQC(=ksRZRVp7`.=+NpBC%rh&3]R:8XDmE5^V8O(x<<aG/1N$#FX$0V5Y6x'aErI3I$7x%E`v<-BY,)%-?Psf*l?%C3.mM(=/M0:JxG'?7WhH%o'a<-80g0NBxoO(GH<dM]n.+%q@jH?f.UsJ2Ggs&4<-e47&Kl+f//9@`b+?.TeN_&B8Ss?v;^Trk;f#YvJkl&w$]>-+k?'(<S:68tq*WoDfZu';mM?8X[ma8W%*`-=;D.(nc7/;)g:T1=^J$&BRV(-lTmNB6xqB[@0*o.erM*<SWF]u2=st-*(6v>^](H.aREZSi,#1:[IXaZFOm<-ui#qUq2$##Ri;u75OK#(RtaW-K-F`S+cF]uN`-KMQ%rP/Xri.LRcB##=YL3BgM/3MD?@f&1'BW-)Ju<L25gl8uhVm1hL$##*8###'A3/LkKW+(^rWX?5W_8g)a(m&K8P>#bmmWCMkk&#TR`C,5d>g)F;t,4:@_l8G/5h4vUd%&%950:VXD'QdWoY-F$BtUwmfe$YqL'8(PWX(P?^@Po3$##`MSs?DWBZ/S>+4%>fX,VWv/w'KD`LP5IbH;rTV>n3cEK8U#bX]l-/V+^lj3;vlMb&[5YQ8#pekX9JP3XUC72L,,?+Ni&co7ApnO*5NK,((W-i:$,kp'UDAO(G0Sq7MVjJsbIu)'Z,*[>br5fX^:FPAWr-m2KgL<LUN098kTF&#lvo58=/vjDo;.;)Ka*hLR#/k=rKbxuV`>Q_nN6'8uTG&#1T5g)uLv:873UpTLgH+#FgpH'_o1780Ph8KmxQJ8#H72L4@768@Tm&Qh4CB/5OvmA&,Q&QbUoi$a_%3M01H)4x7I^&KQVgtFnV+;[Pc>[m4k//,]1?#`VY[Jr*3&&slRfLiVZJ:]?=K3Sw=[$=uRB?3xk48@aeg<Z'<$#4H)6,>e0jT6'N#(q%.O=?2S]u*(m<-V8J'(1)G][68hW$5'q[GC&5j`TE?m'esFGNRM)j,ffZ?-qx8;->g4t*:CIP/[Qap7/9'#(1sao7w-.qNUdkJ)tCF&#B^;xGvn2r9FEPFFFcL@.iFNkTve$m%#QvQS8U@)2Z+3K:AKM5isZ88+dKQ)W6>J%CL<KE>`.d*(B`-n8D9oK<Up]c$X$(,)M8Zt7/[rdkqTgl-0cuGMv'?>-XV1q['-5k'cAZ69e;D_?$ZPP&s^+7])$*$#@QYi9,5P&#9r+$%CE=68>K8r0=dSC%%(@p7.m7jilQ02'0-VWAg<a/''3u.=4L$Y)6k/K:_[3=&jvL<L0C/2'v:^;-DIBW,B4E68:kZ;%?8(Q8BH=kO65BW?xSG&#@uU,DS*,?.+(o(#1vCS8#CHF>TlGW'b)Tq7VT9q^*^$$.:&N@@$&)WHtPm*5_rO0&e%K&#-30j(E4#'Zb.o/(Tpm$>K'f@[PvFl,hfINTNU6u'0pao7%XUp9]5.>%h`8_=VYbxuel.NTSsJfLacFu3B'lQSu/m6-Oqem8T+oE--$0a/k]uj9EwsG>%veR*hv^BFpQj:K'#SJ,sB-'#](j.Lg92rTw-*n%@/;39rrJF,l#qV%OrtBeC6/,;qB3ebNW[?,Hqj2L.1NP&GjUR=1D8QaS3Up&@*9wP?+lo7b?@%'k4`p0Z$22%K3+iCZj?XJN4Nm&+YF]u@-W$U%VEQ/,,>>#)D<h#`)h0:<Q6909ua+&VU%n2:cG3FJ-%@Bj-DgLr`Hw&HAKjKjseK</xKT*)B,N9X3]krc12t'pgTV(Lv-tL[xg_%=M_q7a^x?7Ubd>#%8cY#YZ?=,`Wdxu/ae&#w6)R89tI#6@s'(6Bf7a&?S=^ZI_kS&ai`&=tE72L_D,;^R)7[$s<Eh#c&)q.MXI%#v9ROa5FZO%sF7q7Nwb&#ptUJ:aqJe$Sl68%.D###EC><?-aF&#RNQv>o8lKN%5/$(vdfq7+ebA#u1p]ovUKW&Y%q]'>$1@-[xfn$7ZTp7mM,G,Ko7a&Gu%G[RMxJs[0MM%wci.LFDK)(<c`Q8N)jEIF*+?P2a8g%)$q]o2aH8C&<SibC/q,(e:v;-b#6[$NtDZ84Je2KNvB#$P5?tQ3nt(0d=j.LQf./Ll33+(;q3L-w=8dX$#WF&uIJ@-bfI>%:_i2B5CsR8&9Z&#=mPEnm0f`<&c)QL5uJ#%u%lJj+D-r;BoF&#4DoS97h5g)E#o:&S4weDF,9^Hoe`h*L+_a*NrLW-1pG_&2UdB86e%B/:=>)N4xeW.*wft-;$'58-ESqr<b?UI(_%@[P46>#U`'6AQ]m&6/`Z>#S?YY#Vc;r7U2&326d=w&H####?TZ`*4?&.MK?LP8Vxg>$[QXc%QJv92.(Db*B)gb*BM9dM*hJMAo*c&#b0v=Pjer]$gG&JXDf->'StvU7505l9$AFvgYRI^&<^b68?j#q9QX4SM'RO#&sL1IM.rJfLUAj221]d##DW=m83u5;'bYx,*Sl0hL(W;;$doB&O/TQ:(Z^xBdLjL<Lni;''X.`$#8+1GD:k$YUWsbn8ogh6rxZ2Z9]%nd+>V#*8U_72Lh+2Q8Cj0i:6hp&$C/:p(HK>T8Y[gHQ4`4)'$Ab(Nof%V'8hL&#<NEdtg(n'=S1A(Q1/I&4([%dM`,Iu'1:_hL>SfD07&6D<fp8dHM7/g+tlPN9J*rKaPct&?'uBCem^jn%9_K)<,C5K3s=5g&GmJb*[SYq7K;TRLGCsM-$$;S%:Y@r7AK0pprpL<Lrh,q7e/%KWK:50I^+m'vi`3?%Zp+<-d+$L-Sv:@.o19n$s0&39;kn;S%BSq*$3WoJSCLweV[aZ'MQIjO<7;X-X;&+dMLvu#^UsGEC9WEc[X(wI7#2.(F0jV*eZf<-Qv3J-c+J5AlrB#$p(H68LvEA'q3n0#m,[`*8Ft)FcYgEud]CWfm68,(aLA$@EFTgLXoBq/UPlp7:d[/;r_ix=:TF`S5H-b<LI&HY(K=h#)]Lk$K14lVfm:x$H<3^Ql<M`$OhapBnkup'D#L$Pb_`N*g]2e;X/Dtg,bsj&K#2[-:iYr'_wgH)NUIR8a1n#S?Yej'h8^58UbZd+^FKD*T@;6A7aQC[K8d-(v6GI$x:T<&'Gp5Uf>@M.*J:;$-rv29'M]8qMv-tLp,'886iaC=Hb*YJoKJ,(j%K=H`K.v9HggqBIiZu'QvBT.#=)0ukruV&.)3=(^1`o*Pj4<-<aN((^7('#Z0wK#5GX@7u][`*S^43933A4rl][`*O4CgLEl]v$1Q3AeF37dbXk,.)vj#x'd`;qgbQR%FW,2(?LO=s%Sc68%NP'##Aotl8x=BE#j1UD([3$M(]UI2LX3RpKN@;/#f'f/&_mt&F)XdF<9t4)Qa.*kTLwQ'(TTB9.xH'>#MJ+gLq9-##@HuZPN0]u:h7.T..G:;$/Usj(T7`Q8tT72LnYl<-qx8;-HV7Q-&Xdx%1a,hC=0u+HlsV>nuIQL-5<N?)NBS)QN*_I,?&)2'IM%L3I)X((e/dl2&8'<M:^#M*Q+[T.Xri.LYS3v%fF`68h;b-X[/En'CR.q7E)p'/kle2HM,u;^%OKC-N+Ll%F9CF<Nf'^#t2L,;27W:0O@6##U6W7:$rJfLWHj$#)woqBefIZ.PK<b*t7ed;p*_m;4ExK#h@&]>_>@kXQtMacfD.m-VAb8;IReM3$wf0''hra*so568'Ip&vRs849'MRYSp%:t:h5qSgwpEr$B>Q,;s(C#$)`svQuF$##-D,##,g68@2[T;.XSdN9Qe)rpt._K-#5wF)sP'##p#C0c%-Gb%hd+<-j'Ai*x&&HMkT]C'OSl##5RG[JXaHN;d'uA#x._U;.`PU@(Z3dt4r152@:v,'R.Sj'w#0<-;kPI)FfJ&#AYJ&#//)>-k=m=*XnK$>=)72L]0I%>.G690a:$##<,);?;72#?x9+d;^V'9;jY@;)br#q^YQpx:X#Te$Z^'=-=bGhLf:D6&bNwZ9-ZD#n^9HhLMr5G;']d&6'wYmTFmL<LD)F^%[tC'8;+9E#C$g%#5Y>q9wI>P(9mI[>kC-ekLC/R&CH+s'B;K-M6$EB%is00:+A4[7xks.LrNk0&E)wILYF@2L'0Nb$+pv<(2.768/FrY&h$^3i&@+G%JT'<-,v`3;_)I9M^AE]CN?Cl2AZg+%4iTpT3<n-&%H%b<FDj2M<hH=&Eh<2Len$b*aTX=-8QxN)k11IM1c^j%9s<L<NFSo)B?+<-(GxsF,^-Eh@$4dXhN$+#rxK8'je'D7k`e;)2pYwPA'_p9&@^18ml1^[@g4t*[JOa*[=Qp7(qJ_oOL^('7fB&Hq-:sf,sNj8xq^>$U4O]GKx'm9)b@p7YsvK3w^YR-CdQ*:Ir<($u&)#(&?L9Rg3H)4fiEp^iI9O8KnTj,]H?D*r7'M;PwZ9K0E^k&-cpI;.p/6_vwoFMV<->#%Xi.LxVnrU(4&8/P+:hLSKj$#U%]49t'I:rgMi'FL@a:0Y-uA[39',(vbma*hU%<-SRF`Tt:542R_VV$p@[p8DV[A,?1839FWdF<TddF<9Ah-6&9tWoDlh]&1SpGMq>Ti1O*H&#(AL8[_P%.M>v^-))qOT*F5Cq0`Ye%+$B6i:7@0IX<N+T+0MlMBPQ*Vj>SsD<U4JHY8kD2)2fU/M#$e.)T4,_=8hLim[&);?UkK'-x?'(:siIfL<$pFM`i<?%W(mGDHM%>iWP,##P`%/L<eXi:@Z9C.7o=@(pXdAO/NLQ8lPl+HPOQa8wD8=^GlPa8TKI1CjhsCTSLJM'/Wl>-S(qw%sf/@%#B6;/U7K]uZbi^Oc^2n<bhPmUkMw>%t<)'mEVE''n`WnJra$^TKvX5B>;_aSEK',(hwa0:i4G?.Bci.(X[?b*($,=-n<.Q%`(X=?+@Am*Js0&=3bh8K]mL<LoNs'6,'85`0?t/'_U59@]ddF<#LdF<eWdF<OuN/45rY<-L@&#+fm>69=Lb,OcZV/);TTm8VI;?%OtJ<(b4mq7M6:u?KRdF<gR@2L=FNU-<b[(9c/ML3m;Z[$oF3g)GAWqpARc=<ROu7cL5l;-[A]%/+fsd;l#SafT/f*W]0=O'$(Tb<[)*@e775R-:Yob%g*>l*:xP?Yb.5)%w_I?7uk5JC+FS(m#i'k.'a0i)9<7b'fs'59hq$*5Uhv##pi^8+hIEBF`nvo`;'l0.^S1<-wUK2/Coh58KKhLjM=SO*rfO`+qC`W-On.=AJ56>>i2@2LH6A:&5q`?9I3@@'04&p2/LVa*T-4<-i3;M9UvZd+N7>b*eIwg:CC)c<>nO&#<IGe;__.thjZl<%w(Wk2xmp4Q@I#I9,DF]u7-P=.-_:YJ]aS@V?6*C()dOp7:WL,b&3Rg/.cmM9&r^>$(>.Z-I&J(Q0Hd5Q%7Co-b`-c<N(6r@ip+AurK<m86QIth*#v;-OBqi+L7wDE-Ir8K['m+DDSLwK&/.?-V%U_%3:qKNu$_b*B-kp7NaD'QdWQPKYq[@>P)hI;*_F]u`Rb[.j8_Q/<&>uu+VsH$sM9TA%?)(vmJ80),P7E>)tjD%2L=-t#fK[%`v=Q8<FfNkgg^oIbah*#8/Qt$F&:K*-(N/'+1vMB,u()-a.VUU*#[e%gAAO(S>WlA2);Sa>gXm8YB`1d@K#n]76-a$U,mF<fX]idqd)<3,]J7JmW4`6]uks=4-72L(jEk+:bJ0M^q-8Dm_Z?0olP1C9Sa&H[d&c$ooQUj]Exd*3ZM@-WGW2%s',B-_M%>%Ul:#/'xoFM9QX-$.QN'>[%$Z$uF6pA6Ki2O5:8w*vP1<-1`[G,)-m#>0`P&#eb#.3i)rtB61(o'$?X3B</R90;eZ]%Ncq;-Tl]#F>2Qft^ae_5tKL9MUe9b*sLEQ95C&`=G?@Mj=wh*'3E>=-<)Gt*Iw)'QG:`@IwOf7&]1i'S01B+Ev/Nac#9S;=;YQpg_6U`*kVY39xK,[/6Aj7:'1Bm-_1EYfa1+o&o4hp7KN_Q(OlIo@S%;jVdn0'1<Vc52=u`3^o-n1'g4v58Hj&6_t7$##?M)c<$bgQ_'SY((-xkA#Y(,p'H9rIVY-b,'%bCPF7.J<Up^,(dU1VY*5#WkTU>h19w,WQhLI)3S#f$2(eb,jr*b;3Vw]*7NH%$c4Vs,eD9>XW8?N]o+(*pgC%/72LV-u<Hp,3@e^9UB1J+ak9-TN/mhKPg+AJYd$MlvAF_jCK*.O-^(63adMT->W%iewS8W6m2rtCpo'RS1R84=@paTKt)>=%&1[)*vp'u+x,VrwN;&]kuO9JDbg=pO$J*.jVe;u'm0dr9l,<*wMK*Oe=g8lV_KEBFkO'oU]^=[-792#ok,)i]lR8qQ2oA8wcRCZ^7w/Njh;?.stX?Q1>S1q4Bn$)K1<-rGdO'$Wr.Lc.CG)$/*JL4tNR/,SVO3,aUw'DJN:)Ss;wGn9A32ijw%FL+Z0Fn.U9;reSq)bmI32U==5ALuG&#Vf1398/pVo1*c-(aY168o<`JsSbk-,1N;$>0:OUas(3:8Z972LSfF8eb=c-;>SPw7.6hn3m`9^Xkn(r.qS[0;T%&Qc=+STRxX'q1BNk3&*eu2;&8q$&x>Q#Q7^Tf+6<(d%ZVmj2bDi%.3L2n+4W'$PiDDG)g,r%+?,$@?uou5tSe2aN_AQU*<h`e-GI7)?OK2A.d7_c)?wQ5AS@DL3r#7fSkgl6-++D:'A,uq7SvlB$pcpH'q3n0#_%dY#xCpr-l<F0NR@-##FEV6NTF6##$l84N1w?AO>'IAOURQ##V^Fv-XFbGM7Fl(N<3DhLGF%q.1rC$#:T__&Pi68%0xi_&[qFJ(77j_&JWoF.V735&T,[R*:xFR*K5>>#`bW-?4Ne_&6Ne_&6Ne_&n`kr-#GJcM6X;uM6X;uM(.a..^2TkL%oR(#;u.T%fAr%4tJ8&><1=GHZ_+m9/#H1F^R#SC#*N=BA9(D?v[UiFY>>^8p,KKF.W]L29uLkLlu/+4T<XoIB&hx=T1PcDaB&;HH+-AFr?(m9HZV)FKS8JCw;SD=6[^/DZUL`EUDf]GGlG&>w$)F./^n3+rlo+DB;5sIYGNk+i1t-69Jg--0pao7Sm#K)pdHW&;LuDNH@H>#/X-TI(;P>#,Gc>#0Su>#4`1?#8lC?#<xU?#@.i?#D:%@#HF7@#LRI@#P_[@#Tkn@#Xw*A#]-=A#a9OA#d<F&#*;G##.GY##2Sl##6`($#:l:$#>xL$#B.`$#F:r$#JF.%#NR@%#R_R%#Vke%#Zww%#_-4&#3^Rh%Sflr-k'MS.o?.5/sWel/wpEM0%3'/1)K^f1-d>G21&v(35>V`39V7A4=onx4A1OY5EI0;6Ibgr6M$HS7Q<)58C5w,;WoA*#[%T*#`1g*#d=#+#hI5+#lUG+#pbY+#tnl+#x$),#&1;,#*=M,#.I`,#2Ur,#6b.-#;w[H#iQtA#m^0B#qjBB#uvTB##-hB#'9$C#+E6C#/QHC#3^ZC#7jmC#;v)D#?,<D#C8ND#GDaD#KPsD#O]/E#g1A5#KA*1#gC17#MGd;#8(02#L-d3#rWM4#Hga1#,<w0#T.j<#O#'2#CYN1#qa^:#_4m3#o@/=#eG8=#t8J5#`+78#4uI-#m3B2#SB[8#Q0@8#i[*9#iOn8#1Nm;#^sN9#qh<9#:=x-#P;K2#$%X9#bC+.#Rg;<#mN=.#MTF.#RZO.#2?)4#Y#(/#[)1/#b;L/#dAU/#0Sv;#lY$0#n`-0#sf60#(F24#wrH0#%/e0#TmD<#%JSMFove:CTBEXI:<eh2g)B,3h2^G3i;#d3jD>)4kMYD4lVu`4m`:&5niUA5@(A5BA1]PBB:xlBCC=2CDLXMCEUtiCf&0g2'tN?PGT4CPGT4CPGT4CPGT4CPGT4CPGT4CPGT4CPGT4CPGT4CPGT4CPGT4CPGT4CPGT4CP-qekC`.9kEg^+F$kwViFJTB&5KTB&5KTB&5KTB&5KTB&5KTB&5KTB&5KTB&5KTB&5KTB&5KTB&5KTB&5KTB&5KTB&5KTB&5o,^<-28ZI'O?;xpO?;xpO?;xpO?;xpO?;xpO?;xpO?;xpO?;xpO?;xpO?;xpO?;xpO?;xpO?;xpO?;xp;7q-#lLYI:xvD=#"
      0xfe3c8: "##replay_subtabs"
      0xfe3e0: "Replay##rsub"
      0xfe548: "Stop after##session"
      0xfe560: "##sessionmins"
      0xfe588: "Stop after##limit"
      0xfe5a0: "##maxreplays"
      0xfe620: "##xpbase"
      0xfe630: "Set##xpset"
      0xfe640: "Reset##xpr"
      ... (125 more)
    JSON: 23 strings
      0xc5c78: "libertea_replay_cap.json"
      0xc5cc0: "capturedWarTime"
      0xc5d00: "entityDeep"
      0xc5d10: "entityDataDeep"
      0xfe418: "  Session captured"
      0xff790: "Override sample amounts awarded at end of mission (-1 = default)"
      0x100750: "SCLoop[%d]: actObj=%p missionId=%s actId32=0x%08X objId=0x%08X pids=%d (retry=%d)"
      0x1012f8: "  "capturedWarTime": %u,"
      0x101388: "  "entityDeep": "%s","
      0x1013a0: "  "entityDataDeep": "%s","
      ... (13 more)
    RUNTIME: 7 strings
      0xbd378: "bad exception"
      0xbde24: "`RTTI"
      0xc5b48: "Unknown exception"
      0x101500: "Handler install failed!"
      0x101588: "IC: handler failed!"
      0x11c6b8: ".?AVbad_exception@std@@"
      0x11c750: ".?AVexception@std@@"
    SC_FARMING: 70 strings
      0xc5c78: "libertea_replay_cap.json"
      0xc5ca8: "Medals"
      0xc5d85: " hit Sync or SC REFRESH"
      0xc5f38: "Remove SC Limit"
      0xc6128: "--- Replay ---"
      0xc6138: "Auto Replay: %s  Interval: %.0fs  Count: %d"
      0xc619f: "--- SC ---"
      0xc61ab: "SC Loop:     %s  InFlight: %s"
      0xc61ca: "SC Calls:    %d / %d  Interval: %d ms"
      0xfe3c8: "##replay_subtabs"
      ... (60 more)
    THREADING: 18 strings
      0xbe048: "`local static thread guard'"
      0xbe268: "InitializeCriticalSectionEx"
      0xc0b48: "AppPolicyGetThreadInitializationType"
      0xc6058: "Thread ID:   %lu"
      0xf87a0: "7])#######hV0qs'/###[),##/l:$#Q6>##5[n42>c-TH`->>#/e>11NNV=Bv(*:.F?uu#(gRU.o0XGH`$vhLG1hxt9?W`#,5LsCp#-i>.r$<$6pD>Lb';9Crc6tgXmKVeU2cD4Eo3R/2*>]b(MC;$jPfY.;h^`IWM9<Lh2TlS+f-s$o6Q<BWH`YiU.xfLq$N;$0iR/GX:U(jcW2p/W*q?-qmnUCI;jHSAiFWM.R*kU@C=GH?a9wp8f$e.-4^Qg1)Q-GL(lf(r/7GrRgwV%MS=C#`8ND>Qo#t'X#(v#Y9w0#1D$CIf;W'#pWUPXOuxXuU(H9M(1<q-UE31#^-V'8IRUo7Qf./L>=Ke$$'5F%)]0^#0X@U.a<r:QLtFsLcL6##lOj)#.Y5<-R&KgLwqJfLgN&;Q?gI^#DY2uLi@^rMl9t=cWq6##weg>$FBjVQTSDgEKnIS7EM9>ZY9w0#L;>>#Mx&4Mvt//L[MkA#W@lK.N'[0#7RL_&#w+F%HtG9M#XL`N&.,GM4Pg;-<nLENhvx>-VsM.M0rJfLH2eTM`*oJMHRC`NkfimM2J,W-jXS:)r0wK#@Fge$U>`w'N7G#$#fB#$E^$#:9:hk+eOe--6x)F7*E%?76%^GMHePW-Z5l'&GiF#$956:rS?dA#fiK:)Yr+`&#0j@'DbG&#^$PG.Ll+DNa<XCMKEV*N)LN/N*b=%Q6pia-Xg8I$<MR&,VdJe$<(7G;Ckl'&hF;;$<_=X(b.RS%%)###MPBuuE1V:v&cX&#2m#(&cV]`k9OhLMbn%s$G2,B$BfD3X*sp5#l,$R#]x_X1xKX%b5U*[r5iMfUo9U`N99hG)tm+/Us9pG)XPu`<0s-)WTt(gCRxIg(%6sfh=ktMKn3j)<6<b5Sk_/0(^]AaN#(p/L>&VZ>1i%h1S9u5o@YaaW$e+b<TWFn/Z:Oh(Cx2$lNEoN^e)#CFY@@I;BOQ*sRwZtZxRcU7uW6CXow0i(?$Q[cjOd[P4d)]>ROPOpxTO7Stwi1::iB1q)C_=dV26J;2,]7op$]uQr@_V7$q^%lQwtuHY]=DX,n3L#0PHDO4f9>dC@O>HBuKPpP*E,N+b3L#lpR/MrTEH.IAQk.a>D[.e;mc.x]Ip.PH^'/aqUO/$1WxLoW0[iLA<QT;5HKD+@qQ'NQ(3_PLhE48R.qAPSwQ0/WK?Z,[x?-J;jQTWA0X@KJ(_Y8N-:/M74:/-ZpKrUss?d#dZq]DAbkU*JqkL+nwX@@47`5>w=4h(9.`GCRUxHPeR`5Mjol(dUWxZa(>STrPkrJiWx`5U7F#.g*jrohGg`cg:lSTvEY/EV_7H4Q9[Z%cnv;JQYZ5q.l7Zeas:HOIZOB?G<Nald$qs]@]L<J7bR*>gv:[7MI2k).'2($5FNP&EQ(,)U]W]+fh18.vsai00);D3@4ku5P?DP8aJt+;qUM]=+b'8@;mViBKx0DE[-auGl8:PJ&Dj+M6OC]O^((##]`0i)drT;-7X`=-H3[igUnPG-NZlo.#k@h#=Ork$m>a>$-?Tm$UV(?#P6YY#'/###xe7q.73rI3*pP/$1>s9)W,JrM7SN]'/4C#v$U`0#V.[0>xQsH$fEmPMgY2u7Kh(G%siIfLSoS+MK2eTM$=5,M8p`A.;_R%#u[K#$x4AG8.kK/HSB==-'Ie/QTtG?-.*^N-4B/ZM_3YlQC7(p7q)&](`6_c)$/*JL(L-^(]$wIM`dPtOdGA,U3:w2M-0<q-]L_?^)1vw'.,MRsqVr.L;aN&#/EgJ)PBc[-f>+WomX2u7lqM2iEumMTcsF?-aT=Z-97UEnXglEn1K-bnEO`guFt(c%=;Am_Qs@jLooI&NX;]0#j4#F14;gl8-GQpgwhrq8'=l_f-b49'UOqkLu7-##oDY2L(te+Mch&gLYtJ,MEtJfLh'x'M=$CS-ZZ%P]8bZ>#S?YY#%Q&q'3^Fw&?D)UDNrocM3A76//oL?#h7gl85[qW/NDOk%16ij;+:1a'iNIdb-ou8.P*w,v5#EI$TWS>Pot-R*H'-SEpA:g)f+O$%%`kA#G=8RMmG1&O`>to8bC]T&$,n.LoO>29sp3dt-52U%VM#q7'DHpg+#Z9%H[K<L%a2E-grWVM3@2=-k22tL]4$##6We'8UJCKE[d_=%wI;'6X-GsLX4j^SgJ$##R*w,vP3wK#iiW&#*h^D&R?jp7+/u&#(AP##XU8c$fSYW-J95_-Dp[g9wcO&#M-h1OcJlc-*vpw0xUX&#OQFKNX@QI'IoPp7nb,QU//MQ&ZDkKP)X<WSVL(68uVl&#c'[0#(s1X&xm$Y%B7*K:eDA323j998GXbA#pwMs-jgD$9QISB-A_(aN4xoFM^@C58D0+Q+q3n0#3U1InDjF682-SjMXJK)(h$hxua_K]ul92%'BOU&#BRRh-slg8KDlr:%L71Ka:.A;%YULjDPmL<LYs8i#XwJOYaKPKc1h:'9Ke,g)b),78=I39B;xiY$bgGw-&.Zi9InXDuYa%G*f2Bq7mn9^#p1vv%#(Wi-;/Z5ho;#2:;%d&#x9v68C5g?ntX0X)pT`;%pB3q7mgGN)3%(P8nTd5L7GeA-GL@+%J3u2:(Yf>et`e;)f#Km8&+DC$I46>#Kr]]u-[=99tts1.qb#q72g1WJO81q+eN'03'eM>&1XxY-caEnOj%2n8)),?ILR5^.Ibn<-X-Mq7[a82Lq:F&#ce+S9wsCK*x`569E8ew'He]h:sI[2LM$[guka3ZRd6:t%IG:;$%YiJ:Nq=?eAw;/:nnDq0(CYcMpG)qLN4$##&J<j$UpK<Q4a1]MupW^-sj_$%[HK%'F####QRZJ::Y3EGl4'@%FkiAOg#p[##O`gukTfBHagL<LHw%q&OV0##F=6/:chIm0@eCP8X]:kFI%hl8hgO@RcBhS-@Qb$%+m=hPDLg*%K8ln(wcf3/'DW-$.lR?n[nCH-eXOONTJlh:.RYF%3'p6sq:UIMA945&^HFS87@$EP2iG<-lCO$%c`uKGD3rC$x0BL8aFn--`ke%#HMP'vh1/R&O_J9'um,.<tx[@%wsJk&bUT2`0uMv7gg#qp/ij.L56'hl;.s5CUrxjOM7-##.l+Au'A&O:-T72L]P`&=;ctp'XScX*rU.>-XTt,%OVU4)S1+R-#dg0/Nn?Ku1^0f$B*P:Rowwm-`0PKjYDDM'3]d39VZHEl4,.j']Pk-M.h^&:0FACm$maq-&sgw0t7/6(^xtk%LuH88Fj-ekm>GA#_>568x6(OFRl-IZp`&b,_P'$M<Jnq79VsJW/mWS*PUiq76;]/NM_>hLbxfc$mj`,O;&%W2m`Zh:/)Uetw:aJ%]K9h:TcF]u_-Sj9,VK3M.*'&0D[Ca]J9gp8,kAW]%(?A%R$f<->Zts'^kn=-^@c4%-pY6qI%J%1IGxfLU9CP8cbPlXv);C=b),<2mOvP8up,UVf3839acAWAW-W?#ao/^#%KYo8fRULNd2.>%m]UK:n%r$'sw]J;5pAoO_#2mO3n,'=H5(etHg*`+RLgv>=4U8guD$I%D:W>-r5V*%j*W:Kvej.Lp$<M-SGZ':+Q_k+uvOSLiEo(<aD/K<CCc`'Lx>'?;++O'>()jLR-^u68PHm8ZFWe+ej8h:9r6L*0//c&iH&R8pRbA#Kjm%upV1g:a_#Ur7FuA#(tRh#.Y5K+@?3<-8m0$PEn;J:rh6?I6uG<-`wMU'ircp0LaE_OtlMb&1#6T.#FDKu#1Lw%u%+GM+X'e?YLfjM[VO0MbuFp7;>Q&#WIo)0@F%q7c#4XAXN-U&VB<HFF*qL($/V,;(kXZejWO`<[5??ewY(*9=%wDc;,u<'9t3W-(H1th3+G]ucQ]kLs7df($/*JL]@*t7Bu_G3_7mp7<iaQjO@.kLg;x3B0lqp7Hf,^Ze7-##@/c58Mo(3;knp0%)A7?-W+eI'o8)b<nKnw'Ho8C=Y>pqB>0ie&jhZ[?iLR@@_AvA-iQC(=ksRZRVp7`.=+NpBC%rh&3]R:8XDmE5^V8O(x<<aG/1N$#FX$0V5Y6x'aErI3I$7x%E`v<-BY,)%-?Psf*l?%C3.mM(=/M0:JxG'?7WhH%o'a<-80g0NBxoO(GH<dM]n.+%q@jH?f.UsJ2Ggs&4<-e47&Kl+f//9@`b+?.TeN_&B8Ss?v;^Trk;f#YvJkl&w$]>-+k?'(<S:68tq*WoDfZu';mM?8X[ma8W%*`-=;D.(nc7/;)g:T1=^J$&BRV(-lTmNB6xqB[@0*o.erM*<SWF]u2=st-*(6v>^](H.aREZSi,#1:[IXaZFOm<-ui#qUq2$##Ri;u75OK#(RtaW-K-F`S+cF]uN`-KMQ%rP/Xri.LRcB##=YL3BgM/3MD?@f&1'BW-)Ju<L25gl8uhVm1hL$##*8###'A3/LkKW+(^rWX?5W_8g)a(m&K8P>#bmmWCMkk&#TR`C,5d>g)F;t,4:@_l8G/5h4vUd%&%950:VXD'QdWoY-F$BtUwmfe$YqL'8(PWX(P?^@Po3$##`MSs?DWBZ/S>+4%>fX,VWv/w'KD`LP5IbH;rTV>n3cEK8U#bX]l-/V+^lj3;vlMb&[5YQ8#pekX9JP3XUC72L,,?+Ni&co7ApnO*5NK,((W-i:$,kp'UDAO(G0Sq7MVjJsbIu)'Z,*[>br5fX^:FPAWr-m2KgL<LUN098kTF&#lvo58=/vjDo;.;)Ka*hLR#/k=rKbxuV`>Q_nN6'8uTG&#1T5g)uLv:873UpTLgH+#FgpH'_o1780Ph8KmxQJ8#H72L4@768@Tm&Qh4CB/5OvmA&,Q&QbUoi$a_%3M01H)4x7I^&KQVgtFnV+;[Pc>[m4k//,]1?#`VY[Jr*3&&slRfLiVZJ:]?=K3Sw=[$=uRB?3xk48@aeg<Z'<$#4H)6,>e0jT6'N#(q%.O=?2S]u*(m<-V8J'(1)G][68hW$5'q[GC&5j`TE?m'esFGNRM)j,ffZ?-qx8;->g4t*:CIP/[Qap7/9'#(1sao7w-.qNUdkJ)tCF&#B^;xGvn2r9FEPFFFcL@.iFNkTve$m%#QvQS8U@)2Z+3K:AKM5isZ88+dKQ)W6>J%CL<KE>`.d*(B`-n8D9oK<Up]c$X$(,)M8Zt7/[rdkqTgl-0cuGMv'?>-XV1q['-5k'cAZ69e;D_?$ZPP&s^+7])$*$#@QYi9,5P&#9r+$%CE=68>K8r0=dSC%%(@p7.m7jilQ02'0-VWAg<a/''3u.=4L$Y)6k/K:_[3=&jvL<L0C/2'v:^;-DIBW,B4E68:kZ;%?8(Q8BH=kO65BW?xSG&#@uU,DS*,?.+(o(#1vCS8#CHF>TlGW'b)Tq7VT9q^*^$$.:&N@@$&)WHtPm*5_rO0&e%K&#-30j(E4#'Zb.o/(Tpm$>K'f@[PvFl,hfINTNU6u'0pao7%XUp9]5.>%h`8_=VYbxuel.NTSsJfLacFu3B'lQSu/m6-Oqem8T+oE--$0a/k]uj9EwsG>%veR*hv^BFpQj:K'#SJ,sB-'#](j.Lg92rTw-*n%@/;39rrJF,l#qV%OrtBeC6/,;qB3ebNW[?,Hqj2L.1NP&GjUR=1D8QaS3Up&@*9wP?+lo7b?@%'k4`p0Z$22%K3+iCZj?XJN4Nm&+YF]u@-W$U%VEQ/,,>>#)D<h#`)h0:<Q6909ua+&VU%n2:cG3FJ-%@Bj-DgLr`Hw&HAKjKjseK</xKT*)B,N9X3]krc12t'pgTV(Lv-tL[xg_%=M_q7a^x?7Ubd>#%8cY#YZ?=,`Wdxu/ae&#w6)R89tI#6@s'(6Bf7a&?S=^ZI_kS&ai`&=tE72L_D,;^R)7[$s<Eh#c&)q.MXI%#v9ROa5FZO%sF7q7Nwb&#ptUJ:aqJe$Sl68%.D###EC><?-aF&#RNQv>o8lKN%5/$(vdfq7+ebA#u1p]ovUKW&Y%q]'>$1@-[xfn$7ZTp7mM,G,Ko7a&Gu%G[RMxJs[0MM%wci.LFDK)(<c`Q8N)jEIF*+?P2a8g%)$q]o2aH8C&<SibC/q,(e:v;-b#6[$NtDZ84Je2KNvB#$P5?tQ3nt(0d=j.LQf./Ll33+(;q3L-w=8dX$#WF&uIJ@-bfI>%:_i2B5CsR8&9Z&#=mPEnm0f`<&c)QL5uJ#%u%lJj+D-r;BoF&#4DoS97h5g)E#o:&S4weDF,9^Hoe`h*L+_a*NrLW-1pG_&2UdB86e%B/:=>)N4xeW.*wft-;$'58-ESqr<b?UI(_%@[P46>#U`'6AQ]m&6/`Z>#S?YY#Vc;r7U2&326d=w&H####?TZ`*4?&.MK?LP8Vxg>$[QXc%QJv92.(Db*B)gb*BM9dM*hJMAo*c&#b0v=Pjer]$gG&JXDf->'StvU7505l9$AFvgYRI^&<^b68?j#q9QX4SM'RO#&sL1IM.rJfLUAj221]d##DW=m83u5;'bYx,*Sl0hL(W;;$doB&O/TQ:(Z^xBdLjL<Lni;''X.`$#8+1GD:k$YUWsbn8ogh6rxZ2Z9]%nd+>V#*8U_72Lh+2Q8Cj0i:6hp&$C/:p(HK>T8Y[gHQ4`4)'$Ab(Nof%V'8hL&#<NEdtg(n'=S1A(Q1/I&4([%dM`,Iu'1:_hL>SfD07&6D<fp8dHM7/g+tlPN9J*rKaPct&?'uBCem^jn%9_K)<,C5K3s=5g&GmJb*[SYq7K;TRLGCsM-$$;S%:Y@r7AK0pprpL<Lrh,q7e/%KWK:50I^+m'vi`3?%Zp+<-d+$L-Sv:@.o19n$s0&39;kn;S%BSq*$3WoJSCLweV[aZ'MQIjO<7;X-X;&+dMLvu#^UsGEC9WEc[X(wI7#2.(F0jV*eZf<-Qv3J-c+J5AlrB#$p(H68LvEA'q3n0#m,[`*8Ft)FcYgEud]CWfm68,(aLA$@EFTgLXoBq/UPlp7:d[/;r_ix=:TF`S5H-b<LI&HY(K=h#)]Lk$K14lVfm:x$H<3^Ql<M`$OhapBnkup'D#L$Pb_`N*g]2e;X/Dtg,bsj&K#2[-:iYr'_wgH)NUIR8a1n#S?Yej'h8^58UbZd+^FKD*T@;6A7aQC[K8d-(v6GI$x:T<&'Gp5Uf>@M.*J:;$-rv29'M]8qMv-tLp,'886iaC=Hb*YJoKJ,(j%K=H`K.v9HggqBIiZu'QvBT.#=)0ukruV&.)3=(^1`o*Pj4<-<aN((^7('#Z0wK#5GX@7u][`*S^43933A4rl][`*O4CgLEl]v$1Q3AeF37dbXk,.)vj#x'd`;qgbQR%FW,2(?LO=s%Sc68%NP'##Aotl8x=BE#j1UD([3$M(]UI2LX3RpKN@;/#f'f/&_mt&F)XdF<9t4)Qa.*kTLwQ'(TTB9.xH'>#MJ+gLq9-##@HuZPN0]u:h7.T..G:;$/Usj(T7`Q8tT72LnYl<-qx8;-HV7Q-&Xdx%1a,hC=0u+HlsV>nuIQL-5<N?)NBS)QN*_I,?&)2'IM%L3I)X((e/dl2&8'<M:^#M*Q+[T.Xri.LYS3v%fF`68h;b-X[/En'CR.q7E)p'/kle2HM,u;^%OKC-N+Ll%F9CF<Nf'^#t2L,;27W:0O@6##U6W7:$rJfLWHj$#)woqBefIZ.PK<b*t7ed;p*_m;4ExK#h@&]>_>@kXQtMacfD.m-VAb8;IReM3$wf0''hra*so568'Ip&vRs849'MRYSp%:t:h5qSgwpEr$B>Q,;s(C#$)`svQuF$##-D,##,g68@2[T;.XSdN9Qe)rpt._K-#5wF)sP'##p#C0c%-Gb%hd+<-j'Ai*x&&HMkT]C'OSl##5RG[JXaHN;d'uA#x._U;.`PU@(Z3dt4r152@:v,'R.Sj'w#0<-;kPI)FfJ&#AYJ&#//)>-k=m=*XnK$>=)72L]0I%>.G690a:$##<,);?;72#?x9+d;^V'9;jY@;)br#q^YQpx:X#Te$Z^'=-=bGhLf:D6&bNwZ9-ZD#n^9HhLMr5G;']d&6'wYmTFmL<LD)F^%[tC'8;+9E#C$g%#5Y>q9wI>P(9mI[>kC-ekLC/R&CH+s'B;K-M6$EB%is00:+A4[7xks.LrNk0&E)wILYF@2L'0Nb$+pv<(2.768/FrY&h$^3i&@+G%JT'<-,v`3;_)I9M^AE]CN?Cl2AZg+%4iTpT3<n-&%H%b<FDj2M<hH=&Eh<2Len$b*aTX=-8QxN)k11IM1c^j%9s<L<NFSo)B?+<-(GxsF,^-Eh@$4dXhN$+#rxK8'je'D7k`e;)2pYwPA'_p9&@^18ml1^[@g4t*[JOa*[=Qp7(qJ_oOL^('7fB&Hq-:sf,sNj8xq^>$U4O]GKx'm9)b@p7YsvK3w^YR-CdQ*:Ir<($u&)#(&?L9Rg3H)4fiEp^iI9O8KnTj,]H?D*r7'M;PwZ9K0E^k&-cpI;.p/6_vwoFMV<->#%Xi.LxVnrU(4&8/P+:hLSKj$#U%]49t'I:rgMi'FL@a:0Y-uA[39',(vbma*hU%<-SRF`Tt:542R_VV$p@[p8DV[A,?1839FWdF<TddF<9Ah-6&9tWoDlh]&1SpGMq>Ti1O*H&#(AL8[_P%.M>v^-))qOT*F5Cq0`Ye%+$B6i:7@0IX<N+T+0MlMBPQ*Vj>SsD<U4JHY8kD2)2fU/M#$e.)T4,_=8hLim[&);?UkK'-x?'(:siIfL<$pFM`i<?%W(mGDHM%>iWP,##P`%/L<eXi:@Z9C.7o=@(pXdAO/NLQ8lPl+HPOQa8wD8=^GlPa8TKI1CjhsCTSLJM'/Wl>-S(qw%sf/@%#B6;/U7K]uZbi^Oc^2n<bhPmUkMw>%t<)'mEVE''n`WnJra$^TKvX5B>;_aSEK',(hwa0:i4G?.Bci.(X[?b*($,=-n<.Q%`(X=?+@Am*Js0&=3bh8K]mL<LoNs'6,'85`0?t/'_U59@]ddF<#LdF<eWdF<OuN/45rY<-L@&#+fm>69=Lb,OcZV/);TTm8VI;?%OtJ<(b4mq7M6:u?KRdF<gR@2L=FNU-<b[(9c/ML3m;Z[$oF3g)GAWqpARc=<ROu7cL5l;-[A]%/+fsd;l#SafT/f*W]0=O'$(Tb<[)*@e775R-:Yob%g*>l*:xP?Yb.5)%w_I?7uk5JC+FS(m#i'k.'a0i)9<7b'fs'59hq$*5Uhv##pi^8+hIEBF`nvo`;'l0.^S1<-wUK2/Coh58KKhLjM=SO*rfO`+qC`W-On.=AJ56>>i2@2LH6A:&5q`?9I3@@'04&p2/LVa*T-4<-i3;M9UvZd+N7>b*eIwg:CC)c<>nO&#<IGe;__.thjZl<%w(Wk2xmp4Q@I#I9,DF]u7-P=.-_:YJ]aS@V?6*C()dOp7:WL,b&3Rg/.cmM9&r^>$(>.Z-I&J(Q0Hd5Q%7Co-b`-c<N(6r@ip+AurK<m86QIth*#v;-OBqi+L7wDE-Ir8K['m+DDSLwK&/.?-V%U_%3:qKNu$_b*B-kp7NaD'QdWQPKYq[@>P)hI;*_F]u`Rb[.j8_Q/<&>uu+VsH$sM9TA%?)(vmJ80),P7E>)tjD%2L=-t#fK[%`v=Q8<FfNkgg^oIbah*#8/Qt$F&:K*-(N/'+1vMB,u()-a.VUU*#[e%gAAO(S>WlA2);Sa>gXm8YB`1d@K#n]76-a$U,mF<fX]idqd)<3,]J7JmW4`6]uks=4-72L(jEk+:bJ0M^q-8Dm_Z?0olP1C9Sa&H[d&c$ooQUj]Exd*3ZM@-WGW2%s',B-_M%>%Ul:#/'xoFM9QX-$.QN'>[%$Z$uF6pA6Ki2O5:8w*vP1<-1`[G,)-m#>0`P&#eb#.3i)rtB61(o'$?X3B</R90;eZ]%Ncq;-Tl]#F>2Qft^ae_5tKL9MUe9b*sLEQ95C&`=G?@Mj=wh*'3E>=-<)Gt*Iw)'QG:`@IwOf7&]1i'S01B+Ev/Nac#9S;=;YQpg_6U`*kVY39xK,[/6Aj7:'1Bm-_1EYfa1+o&o4hp7KN_Q(OlIo@S%;jVdn0'1<Vc52=u`3^o-n1'g4v58Hj&6_t7$##?M)c<$bgQ_'SY((-xkA#Y(,p'H9rIVY-b,'%bCPF7.J<Up^,(dU1VY*5#WkTU>h19w,WQhLI)3S#f$2(eb,jr*b;3Vw]*7NH%$c4Vs,eD9>XW8?N]o+(*pgC%/72LV-u<Hp,3@e^9UB1J+ak9-TN/mhKPg+AJYd$MlvAF_jCK*.O-^(63adMT->W%iewS8W6m2rtCpo'RS1R84=@paTKt)>=%&1[)*vp'u+x,VrwN;&]kuO9JDbg=pO$J*.jVe;u'm0dr9l,<*wMK*Oe=g8lV_KEBFkO'oU]^=[-792#ok,)i]lR8qQ2oA8wcRCZ^7w/Njh;?.stX?Q1>S1q4Bn$)K1<-rGdO'$Wr.Lc.CG)$/*JL4tNR/,SVO3,aUw'DJN:)Ss;wGn9A32ijw%FL+Z0Fn.U9;reSq)bmI32U==5ALuG&#Vf1398/pVo1*c-(aY168o<`JsSbk-,1N;$>0:OUas(3:8Z972LSfF8eb=c-;>SPw7.6hn3m`9^Xkn(r.qS[0;T%&Qc=+STRxX'q1BNk3&*eu2;&8q$&x>Q#Q7^Tf+6<(d%ZVmj2bDi%.3L2n+4W'$PiDDG)g,r%+?,$@?uou5tSe2aN_AQU*<h`e-GI7)?OK2A.d7_c)?wQ5AS@DL3r#7fSkgl6-++D:'A,uq7SvlB$pcpH'q3n0#_%dY#xCpr-l<F0NR@-##FEV6NTF6##$l84N1w?AO>'IAOURQ##V^Fv-XFbGM7Fl(N<3DhLGF%q.1rC$#:T__&Pi68%0xi_&[qFJ(77j_&JWoF.V735&T,[R*:xFR*K5>>#`bW-?4Ne_&6Ne_&6Ne_&n`kr-#GJcM6X;uM6X;uM(.a..^2TkL%oR(#;u.T%fAr%4tJ8&><1=GHZ_+m9/#H1F^R#SC#*N=BA9(D?v[UiFY>>^8p,KKF.W]L29uLkLlu/+4T<XoIB&hx=T1PcDaB&;HH+-AFr?(m9HZV)FKS8JCw;SD=6[^/DZUL`EUDf]GGlG&>w$)F./^n3+rlo+DB;5sIYGNk+i1t-69Jg--0pao7Sm#K)pdHW&;LuDNH@H>#/X-TI(;P>#,Gc>#0Su>#4`1?#8lC?#<xU?#@.i?#D:%@#HF7@#LRI@#P_[@#Tkn@#Xw*A#]-=A#a9OA#d<F&#*;G##.GY##2Sl##6`($#:l:$#>xL$#B.`$#F:r$#JF.%#NR@%#R_R%#Vke%#Zww%#_-4&#3^Rh%Sflr-k'MS.o?.5/sWel/wpEM0%3'/1)K^f1-d>G21&v(35>V`39V7A4=onx4A1OY5EI0;6Ibgr6M$HS7Q<)58C5w,;WoA*#[%T*#`1g*#d=#+#hI5+#lUG+#pbY+#tnl+#x$),#&1;,#*=M,#.I`,#2Ur,#6b.-#;w[H#iQtA#m^0B#qjBB#uvTB##-hB#'9$C#+E6C#/QHC#3^ZC#7jmC#;v)D#?,<D#C8ND#GDaD#KPsD#O]/E#g1A5#KA*1#gC17#MGd;#8(02#L-d3#rWM4#Hga1#,<w0#T.j<#O#'2#CYN1#qa^:#_4m3#o@/=#eG8=#t8J5#`+78#4uI-#m3B2#SB[8#Q0@8#i[*9#iOn8#1Nm;#^sN9#qh<9#:=x-#P;K2#$%X9#bC+.#Rg;<#mN=.#MTF.#RZO.#2?)4#Y#(/#[)1/#b;L/#dAU/#0Sv;#lY$0#n`-0#sf60#(F24#wrH0#%/e0#TmD<#%JSMFove:CTBEXI:<eh2g)B,3h2^G3i;#d3jD>)4kMYD4lVu`4m`:&5niUA5@(A5BA1]PBB:xlBCC=2CDLXMCEUtiCf&0g2'tN?PGT4CPGT4CPGT4CPGT4CPGT4CPGT4CPGT4CPGT4CPGT4CPGT4CPGT4CPGT4CPGT4CP-qekC`.9kEg^+F$kwViFJTB&5KTB&5KTB&5KTB&5KTB&5KTB&5KTB&5KTB&5KTB&5KTB&5KTB&5KTB&5KTB&5KTB&5KTB&5o,^<-28ZI'O?;xpO?;xpO?;xpO?;xpO?;xpO?;xpO?;xpO?;xpO?;xpO?;xpO?;xpO?;xpO?;xpO?;xp;7q-#lLYI:xvD=#"
      0xfe678: "AFK Prevention: ON ##afk"
      0xfe698: "AFK Prevention: OFF##afk"
      0xfe760: "Do not close game -- dispatching..."
      0xfe7e0: "All replays dispatched."
      0x1005a0: "=== ScActivityAPC === actObj=%p TID=%u"
      0x100a98: "[Replay] Dispatch failed"
      0x100af8: " %d replays dispatched"
      0x1013f8: "[Probe] Game thread captured"
      0x101fb8: "dispatch"
      0x101fc8: "Dispatch"
      0x1035a8: "Freeze sample values (prevents loss)"
      0x103ec8: "WndProc: WM_SC_DISPATCH received, actObj=%p, TID=%u"
      0x105150: "[focus] FocusWindow("%s", UnlessBelowModal): prevented by "%s"."
    TIMING: 30 strings
      0xfe9c8: "SC Timer (minutes, 0 = unlimited)"
      0xfe9f0: "##SCTimer"
      0xfea10: "Running -- no timer set"
      0xfea28: "Timer expired -- loop paused"
      0xfea60: "Cooldown: %ds remaining..."
      0xfec80: "Calls fire in batches of 9, spaced 500ms apart, followed by a 58s cooldown."
      0xff15f: " session timer expired"
      0xff910: "  [N/A] Freeze Mission Timer"
      0xff930: "Freeze Mission Timer"
      0xff948: "Freezes all countdown timers (mission, extraction, etc.)"
      ... (20 more)

================================================================================
  SUPPLEMENT S4: INSTRUCTION DISTRIBUTION AND RARE PATTERNS
================================================================================

S4.1 RARE/UNUSUAL INSTRUCTIONS
    CPUID (0F A2): 10 occurrences
    XGETBV (0F 01 D0): 2 occurrences
    XSAVE: 31 occurrences
    SFENCE (0F AE F8): 2 occurrences
    PREFETCH: 2 occurrences
    VZEROUPPER: 13 occurrences
    PAUSE (F3 90): 2 occurrences
    UD2 (0F 0B): 1 occurrences
    INT3 (CC): 11211 occurrences
    HLT (F4): 1166 occurrences
    CLI (FA): 1617 occurrences
    STI (FB): 1706 occurrences
    INVD: 70 occurrences
    WBINVD: 7 occurrences

================================================================================
  SUPPLEMENT S5: PATTERN SCANNER FULL DISASSEMBLY
================================================================================

S5.1 RE-DISASSEMBLY OF KNOWN PATTERN SCANNER FUNCTION
    Using targeted disassembly with proper alignment...

    Searching for scanner function entry in 0x6C00-0x6E00...
      Found prologue at 0x6dfe: mov qword ptr [rsp + 0x28], rdi

    === Disassembly at 0x6cc0 (re-disassembled) ===
    0x6cc0: add eax, 0x36c4e3
    0x6cc5: add byte ptr [rax], al

    === Disassembly at 0x6cd0 (re-disassembled) ===
    0x6cd0: mov qword ptr [rip + 0x36c4e9], r12
    0x6cd7: call qword ptr [rip + 0xb2793]
    0x6cdd: mov qword ptr [rip + 0x36c4d4], rax
    0x6ce4: xor r8d, r8d
    0x6ce7: lea rdx, [rip + 0xf7832]
    0x6cee: lea rcx, [rip + 0x36c42b]
    0x6cf5: call 0x7f0
    0x6cfa: mov ecx, 3
    0x6cff: call 0x39360
    0x6d04: cmp rdi, rsi
    0x6d07: jne 0x6d77
    0x6d09: mov rdx, qword ptr [rip + 0x117868]
    0x6d10: movzx eax, word ptr [rdx + 0x24b4]
    0x6d17: test ax, ax
    0x6d1a: jg 0x6d2a
    0x6d1c: lea rcx, [rip + 0xfe4c5]
    0x6d23: call 0x4c140
    0x6d28: jmp 0x6d77
    0x6d2a: dec ax
    0x6d2d: mov word ptr [rdx + 0x24b4], ax
    0x6d34: mov eax, dword ptr [rdx + 0x1cf8]
    0x6d3a: shr eax, 0xa
    0x6d3d: test al, 1
    0x6d3f: movsxd rcx, dword ptr [rdx + 0x1e40]
    0x6d46: lea eax, [rcx - 1]
    0x6d49: mov dword ptr [rdx + 0x1e40], eax
    0x6d4f: mov rax, qword ptr [rdx + 0x1e48]
    0x6d56: mov r8d, dword ptr [rax + rcx*4 - 8]
    0x6d5b: mov dword ptr [rdx + 0x1cf8], r8d
    0x6d62: je 0x6d77
    0x6d64: bt r8d, 0xa
    0x6d69: jb 0x6d77
    0x6d6b: mov eax, dword ptr [rdx + 0x24b0]
    0x6d71: mov dword ptr [rdx + 0xbf0], eax
    0x6d77: mov rcx, qword ptr [rip + 0x1177fa]
    0x6d7e: mov rax, qword ptr [rcx + 0x1368]
    0x6d85: mov byte ptr [rax + 0xcc], 1
    0x6d8c: mov rax, qword ptr [rcx + 0x1368]
    0x6d93: cmp byte ptr [rax + 0xcf], 0
    0x6d9a: jne 0x6db3

    === Disassembly at 0x6ce0 (re-disassembled) ===

    === Disassembly at 0x6d00 (re-disassembled) ===
    0x6d00: pop rsp
    0x6d01: add eax, dword ptr es:[rax]
    0x6d04: cmp rdi, rsi
    0x6d07: jne 0x6d77
    0x6d09: mov rdx, qword ptr [rip + 0x117868]
    0x6d10: movzx eax, word ptr [rdx + 0x24b4]
    0x6d17: test ax, ax
    0x6d1a: jg 0x6d2a
    0x6d1c: lea rcx, [rip + 0xfe4c5]
    0x6d23: call 0x4c140
    0x6d28: jmp 0x6d77
    0x6d2a: dec ax
    0x6d2d: mov word ptr [rdx + 0x24b4], ax
    0x6d34: mov eax, dword ptr [rdx + 0x1cf8]
    0x6d3a: shr eax, 0xa
    0x6d3d: test al, 1
    0x6d3f: movsxd rcx, dword ptr [rdx + 0x1e40]
    0x6d46: lea eax, [rcx - 1]
    0x6d49: mov dword ptr [rdx + 0x1e40], eax
    0x6d4f: mov rax, qword ptr [rdx + 0x1e48]
    0x6d56: mov r8d, dword ptr [rax + rcx*4 - 8]
    0x6d5b: mov dword ptr [rdx + 0x1cf8], r8d
    0x6d62: je 0x6d77
    0x6d64: bt r8d, 0xa
    0x6d69: jb 0x6d77
    0x6d6b: mov eax, dword ptr [rdx + 0x24b0]
    0x6d71: mov dword ptr [rdx + 0xbf0], eax
    0x6d77: mov rcx, qword ptr [rip + 0x1177fa]
    0x6d7e: mov rax, qword ptr [rcx + 0x1368]
    0x6d85: mov byte ptr [rax + 0xcc], 1
    0x6d8c: mov rax, qword ptr [rcx + 0x1368]
    0x6d93: cmp byte ptr [rax + 0xcf], 0
    0x6d9a: jne 0x6db3
    0x6d9c: mov qword ptr [rsp + 0x40], 0
    0x6da5: movaps xmm1, xmm9
    0x6da9: lea rcx, [rsp + 0x40]
    0x6dae: call 0x4cb30
    0x6db3: lea rdx, [rip + 0x36c3f6]
    0x6dba: lea rcx, [rip + 0xf7787]
    0x6dc1: call 0x71490

    === Disassembly at 0x6d20 (re-disassembled) ===
    0x6d20: in al, 0xf
    0x6d22: add al, ch
    0x6d24: sbb byte ptr [rsp + rax], dl
    0x6d28: jmp 0x6d77
    0x6d2a: dec ax
    0x6d2d: mov word ptr [rdx + 0x24b4], ax
    0x6d34: mov eax, dword ptr [rdx + 0x1cf8]
    0x6d3a: shr eax, 0xa
    0x6d3d: test al, 1
    0x6d3f: movsxd rcx, dword ptr [rdx + 0x1e40]
    0x6d46: lea eax, [rcx - 1]
    0x6d49: mov dword ptr [rdx + 0x1e40], eax
    0x6d4f: mov rax, qword ptr [rdx + 0x1e48]
    0x6d56: mov r8d, dword ptr [rax + rcx*4 - 8]
    0x6d5b: mov dword ptr [rdx + 0x1cf8], r8d
    0x6d62: je 0x6d77
    0x6d64: bt r8d, 0xa
    0x6d69: jb 0x6d77
    0x6d6b: mov eax, dword ptr [rdx + 0x24b0]
    0x6d71: mov dword ptr [rdx + 0xbf0], eax
    0x6d77: mov rcx, qword ptr [rip + 0x1177fa]
    0x6d7e: mov rax, qword ptr [rcx + 0x1368]
    0x6d85: mov byte ptr [rax + 0xcc], 1
    0x6d8c: mov rax, qword ptr [rcx + 0x1368]
    0x6d93: cmp byte ptr [rax + 0xcf], 0
    0x6d9a: jne 0x6db3
    0x6d9c: mov qword ptr [rsp + 0x40], 0
    0x6da5: movaps xmm1, xmm9
    0x6da9: lea rcx, [rsp + 0x40]
    0x6dae: call 0x4cb30
    0x6db3: lea rdx, [rip + 0x36c3f6]
    0x6dba: lea rcx, [rip + 0xf7787]
    0x6dc1: call 0x71490
    0x6dc6: lea rdi, [rip + 0xf811b]
    0x6dcd: cmp byte ptr [rip + 0x36c3dc], 0
    0x6dd4: je 0x6f5e
    0x6dda: movaps xmm1, xmm9
    0x6dde: xorps xmm0, xmm0
    0x6de1: call 0x4cca0
    0x6de6: mov rdx, qword ptr [rip + 0x11778b]

    === Disassembly at 0x6d40 (re-disassembled) ===
    0x6d40: movsxd ecx, dword ptr [rdx + 0x1e40]
    0x6d46: lea eax, [rcx - 1]
    0x6d49: mov dword ptr [rdx + 0x1e40], eax
    0x6d4f: mov rax, qword ptr [rdx + 0x1e48]
    0x6d56: mov r8d, dword ptr [rax + rcx*4 - 8]
    0x6d5b: mov dword ptr [rdx + 0x1cf8], r8d
    0x6d62: je 0x6d77
    0x6d64: bt r8d, 0xa
    0x6d69: jb 0x6d77
    0x6d6b: mov eax, dword ptr [rdx + 0x24b0]
    0x6d71: mov dword ptr [rdx + 0xbf0], eax
    0x6d77: mov rcx, qword ptr [rip + 0x1177fa]
    0x6d7e: mov rax, qword ptr [rcx + 0x1368]
    0x6d85: mov byte ptr [rax + 0xcc], 1
    0x6d8c: mov rax, qword ptr [rcx + 0x1368]
    0x6d93: cmp byte ptr [rax + 0xcf], 0
    0x6d9a: jne 0x6db3
    0x6d9c: mov qword ptr [rsp + 0x40], 0
    0x6da5: movaps xmm1, xmm9
    0x6da9: lea rcx, [rsp + 0x40]
    0x6dae: call 0x4cb30
    0x6db3: lea rdx, [rip + 0x36c3f6]
    0x6dba: lea rcx, [rip + 0xf7787]
    0x6dc1: call 0x71490
    0x6dc6: lea rdi, [rip + 0xf811b]
    0x6dcd: cmp byte ptr [rip + 0x36c3dc], 0
    0x6dd4: je 0x6f5e
    0x6dda: movaps xmm1, xmm9
    0x6dde: xorps xmm0, xmm0
    0x6de1: call 0x4cca0
    0x6de6: mov rdx, qword ptr [rip + 0x11778b]
    0x6ded: or dword ptr [rdx + 0x1d00], 1
    0x6df4: mov dword ptr [rdx + 0x1d18], 0x42700000
    0x6dfe: mov qword ptr [rsp + 0x28], rdi
    0x6e03: mov qword ptr [rsp + 0x20], r12
    0x6e08: xor r9d, r9d
    0x6e0b: lea r8, [rip + 0x36c3a2]
    0x6e12: lea rcx, [rip + 0xf7747]
    0x6e19: call 0x75aa0
    0x6e1e: test al, al

    === Disassembly at 0x6d60 (re-disassembled) ===
    0x6d60: add byte ptr [rax], al
    0x6d62: je 0x6d77
    0x6d64: bt r8d, 0xa
    0x6d69: jb 0x6d77
    0x6d6b: mov eax, dword ptr [rdx + 0x24b0]
    0x6d71: mov dword ptr [rdx + 0xbf0], eax
    0x6d77: mov rcx, qword ptr [rip + 0x1177fa]
    0x6d7e: mov rax, qword ptr [rcx + 0x1368]
    0x6d85: mov byte ptr [rax + 0xcc], 1
    0x6d8c: mov rax, qword ptr [rcx + 0x1368]
    0x6d93: cmp byte ptr [rax + 0xcf], 0
    0x6d9a: jne 0x6db3
    0x6d9c: mov qword ptr [rsp + 0x40], 0
    0x6da5: movaps xmm1, xmm9
    0x6da9: lea rcx, [rsp + 0x40]
    0x6dae: call 0x4cb30
    0x6db3: lea rdx, [rip + 0x36c3f6]
    0x6dba: lea rcx, [rip + 0xf7787]
    0x6dc1: call 0x71490
    0x6dc6: lea rdi, [rip + 0xf811b]
    0x6dcd: cmp byte ptr [rip + 0x36c3dc], 0
    0x6dd4: je 0x6f5e
    0x6dda: movaps xmm1, xmm9
    0x6dde: xorps xmm0, xmm0
    0x6de1: call 0x4cca0
    0x6de6: mov rdx, qword ptr [rip + 0x11778b]
    0x6ded: or dword ptr [rdx + 0x1d00], 1
    0x6df4: mov dword ptr [rdx + 0x1d18], 0x42700000
    0x6dfe: mov qword ptr [rsp + 0x28], rdi
    0x6e03: mov qword ptr [rsp + 0x20], r12
    0x6e08: xor r9d, r9d
    0x6e0b: lea r8, [rip + 0x36c3a2]
    0x6e12: lea rcx, [rip + 0xf7747]
    0x6e19: call 0x75aa0
    0x6e1e: test al, al
    0x6e20: je 0x6e47
    0x6e22: mov eax, dword ptr [rip + 0x36c38c]
    0x6e28: cmp eax, 1
    0x6e2b: jge 0x6e36
    0x6e2d: mov eax, r13d

    === Disassembly at 0x6d70 (re-disassembled) ===
    0x6d70: add byte ptr [rcx + 0xbf082], cl
    0x6d76: add byte ptr [rax - 0x75], cl
    0x6d79: or eax, 0x1177fa
    0x6d7e: mov rax, qword ptr [rcx + 0x1368]
    0x6d85: mov byte ptr [rax + 0xcc], 1
    0x6d8c: mov rax, qword ptr [rcx + 0x1368]
    0x6d93: cmp byte ptr [rax + 0xcf], 0
    0x6d9a: jne 0x6db3
    0x6d9c: mov qword ptr [rsp + 0x40], 0
    0x6da5: movaps xmm1, xmm9
    0x6da9: lea rcx, [rsp + 0x40]
    0x6dae: call 0x4cb30
    0x6db3: lea rdx, [rip + 0x36c3f6]
    0x6dba: lea rcx, [rip + 0xf7787]
    0x6dc1: call 0x71490
    0x6dc6: lea rdi, [rip + 0xf811b]
    0x6dcd: cmp byte ptr [rip + 0x36c3dc], 0
    0x6dd4: je 0x6f5e
    0x6dda: movaps xmm1, xmm9
    0x6dde: xorps xmm0, xmm0
    0x6de1: call 0x4cca0
    0x6de6: mov rdx, qword ptr [rip + 0x11778b]
    0x6ded: or dword ptr [rdx + 0x1d00], 1
    0x6df4: mov dword ptr [rdx + 0x1d18], 0x42700000
    0x6dfe: mov qword ptr [rsp + 0x28], rdi
    0x6e03: mov qword ptr [rsp + 0x20], r12
    0x6e08: xor r9d, r9d
    0x6e0b: lea r8, [rip + 0x36c3a2]
    0x6e12: lea rcx, [rip + 0xf7747]
    0x6e19: call 0x75aa0
    0x6e1e: test al, al
    0x6e20: je 0x6e47
    0x6e22: mov eax, dword ptr [rip + 0x36c38c]
    0x6e28: cmp eax, 1
    0x6e2b: jge 0x6e36
    0x6e2d: mov eax, r13d
    0x6e30: mov dword ptr [rip + 0x36c37e], eax
    0x6e36: cmp eax, 0x270f
    0x6e3b: jle 0x6e47
    0x6e3d: mov dword ptr [rip + 0x36c36d], 0x270f

    === Disassembly at 0x6d90 (re-disassembled) ===
    0x6d90: adc eax, dword ptr [rax]
    0x6d92: add byte ptr [rax + 0xcfb8], al
    0x6d98: add byte ptr [rax], al
    0x6d9a: jne 0x6db3
    0x6d9c: mov qword ptr [rsp + 0x40], 0
    0x6da5: movaps xmm1, xmm9
    0x6da9: lea rcx, [rsp + 0x40]
    0x6dae: call 0x4cb30
    0x6db3: lea rdx, [rip + 0x36c3f6]
    0x6dba: lea rcx, [rip + 0xf7787]
    0x6dc1: call 0x71490
    0x6dc6: lea rdi, [rip + 0xf811b]
    0x6dcd: cmp byte ptr [rip + 0x36c3dc], 0
    0x6dd4: je 0x6f5e
    0x6dda: movaps xmm1, xmm9
    0x6dde: xorps xmm0, xmm0
    0x6de1: call 0x4cca0
    0x6de6: mov rdx, qword ptr [rip + 0x11778b]
    0x6ded: or dword ptr [rdx + 0x1d00], 1
    0x6df4: mov dword ptr [rdx + 0x1d18], 0x42700000
    0x6dfe: mov qword ptr [rsp + 0x28], rdi
    0x6e03: mov qword ptr [rsp + 0x20], r12
    0x6e08: xor r9d, r9d
    0x6e0b: lea r8, [rip + 0x36c3a2]
    0x6e12: lea rcx, [rip + 0xf7747]
    0x6e19: call 0x75aa0
    0x6e1e: test al, al
    0x6e20: je 0x6e47
    0x6e22: mov eax, dword ptr [rip + 0x36c38c]
    0x6e28: cmp eax, 1
    0x6e2b: jge 0x6e36
    0x6e2d: mov eax, r13d
    0x6e30: mov dword ptr [rip + 0x36c37e], eax
    0x6e36: cmp eax, 0x270f
    0x6e3b: jle 0x6e47
    0x6e3d: mov dword ptr [rip + 0x36c36d], 0x270f
    0x6e47: movaps xmm1, xmm9
    0x6e4b: xorps xmm0, xmm0
    0x6e4e: call 0x4cca0
    0x6e53: mov r8d, r13d

================================================================================
  SUPPLEMENT S6: IMPORT RESOLVER DEEP DIVE
================================================================================

S6.1 IMPORT STUB ANALYSIS (RVA 0x1020 - 0x10A0 region)
    Analyzing call/jmp stubs that reference import names...


================================================================================
  SUPPLEMENT S7: IMGUI VERSION AND INITIALIZATION DEEP DIVE
================================================================================

S7.1 IMGUI IL VERSION MARKERS
    Searching for ImGui version strings in binary...

    0x104dad: "ImGui 1.91.5 (19150) "
    0x10502f: "ImGuiDebugLogFlags after 2 frames)
 "

S7.2 IMGUI INITIALIZATION CODE RECONSTRUCTION
    Searching for the call sequence: CreateContext -> StyleColors -> Font...
    'NewFrame' at RVA 0x104fc0
    Code near this reference:

================================================================================
  SUPPLEMENT S8: STRING HASH ALGORITHM DEEP DIVE
================================================================================

S8.1 CRC32 INSTRUCTION ANALYSIS


S8.2 HASH FUNCTION DETECTION BY CONSTANTS
    Scanning for well-known hash constants embedded in code...
    0xf80b0: 0xEDB88320 -> CRC-32 (IEEE 802.3)

================================================================================
  SUPPLEMENT S9: ENCRYPTION / OBFUSCATION DEEP DIVE
================================================================================

S9.1 XOR ENCRYPTION LOOP PATTERNS
    Searching for XOR-based encryption/decryption loops...

    Potential XOR decrypt loop at 0x16000
    Potential XOR decrypt loop at 0x1673c
    Potential XOR decrypt loop at 0x17481
    Potential XOR decrypt loop at 0x1afe6
    Potential XOR decrypt loop at 0x1aff3
    Potential XOR decrypt loop at 0x291d1
    Potential XOR decrypt loop at 0x292ef
    Potential XOR decrypt loop at 0x2c391
    Potential XOR decrypt loop at 0x2d5a0
    Potential XOR decrypt loop at 0x2daa8
    XOR decrypt loop candidates (first 512KB): 55

================================================================================
  SUPPLEMENT S10: CODE CAVE / SHELLCODE REGIONS
================================================================================

S10.1 CODE CAVES (large regions of executable padding)

    Code cave regions (>= 64 bytes identical):
    0x89022-0x89070: 78 bytes of 0x06
    0x89071-0x890d0: 95 bytes of 0x06
    0x8910d-0x89195: 136 bytes of 0x06
    0xb80bc-0xb9000: 3,908 bytes of NUL
    0xbd051-0xbd134: 227 bytes of NUL
    0xbd244-0xbd2c0: 124 bytes of NUL
    0xbd2e4-0xbd358: 116 bytes of NUL
    0xbe346-0xbe391: 75 bytes of NUL
    0xbe446-0xbe490: 74 bytes of NUL
    0xbf128-0xbf230: 264 bytes of NUL
    0xbf32f-0xbf430: 257 bytes of NUL
    0xc6291-0xc6e51: 3,008 bytes of NUL
    0xc6e69-0xc6eb8: 79 bytes of NUL
    0xc7009-0xc7060: 87 bytes of NUL
    0xc7081-0xc7260: 479 bytes of NUL
    0xc726c-0xc8458: 4,588 bytes of NUL
    0xc8490-0xc8558: 200 bytes of NUL
    0xc9d8f-0xc9efe: 367 bytes of NUL
    0xc9f1d-0xca000: 227 bytes of NUL
    0xca077-0xca20c: 405 bytes of NUL
    0xca32b-0xca3a8: 125 bytes of NUL
    0xca594-0xca600: 108 bytes of NUL
    0xca7e6-0xca828: 66 bytes of NUL
    0xca840-0xca880: 64 bytes of NUL
    0xca8a2-0xca90c: 106 bytes of NUL
    0xca92e-0xca994: 102 bytes of NUL
    0xca9a6-0xca9f0: 74 bytes of NUL
    0xcab42-0xcae40: 766 bytes of NUL
    0xcae40-0xcaed0: 144 bytes of 0x08
    0xcaed0-0xcaf40: 112 bytes of 0x09
    0xcb001-0xcbbc1: 3,008 bytes of NUL
    0xcbbd9-0xcbc28: 79 bytes of NUL
    0xcca79-0xccad0: 87 bytes of NUL
    0xccaf1-0xcccd0: 479 bytes of NUL
    0xcccdc-0xcdec8: 4,588 bytes of NUL
    0xcdf00-0xcdfc8: 200 bytes of NUL
    0xcf7ff-0xcf96e: 367 bytes of NUL
    0xcf98d-0xcfa70: 227 bytes of NUL
    0xcfae7-0xcfc7c: 405 bytes of NUL
    0xcfd9b-0xcfe18: 125 bytes of NUL
    0xd0004-0xd0070: 108 bytes of NUL
    0xd0256-0xd0298: 66 bytes of NUL
    0xd02b0-0xd02f0: 64 bytes of NUL
    0xd0312-0xd037c: 106 bytes of NUL
    0xd039e-0xd0404: 102 bytes of NUL
    0xd0416-0xd0460: 74 bytes of NUL
    0xd05b2-0xd08c0: 782 bytes of NUL
    0xd0981-0xd1541: 3,008 bytes of NUL
    0xd1559-0xd15a8: 79 bytes of NUL
    0xd1689-0xd16e0: 87 bytes of NUL
    0xd1701-0xd18e0: 479 bytes of NUL
    0xd18ec-0xd2ad8: 4,588 bytes of NUL
    0xd2b10-0xd2bd8: 200 bytes of NUL
    0xd440f-0xd457e: 367 bytes of NUL
    0xd459d-0xd4680: 227 bytes of NUL
    0xd46f7-0xd488c: 405 bytes of NUL
    0xd49ab-0xd4a28: 125 bytes of NUL
    0xd4c14-0xd4c80: 108 bytes of NUL
    0xd4e66-0xd4ea8: 66 bytes of NUL
    0xd4ec0-0xd4f00: 64 bytes of NUL
    0xd4f22-0xd4f8c: 106 bytes of NUL
    0xd4fae-0xd5014: 102 bytes of NUL
    0xd5026-0xd5070: 74 bytes of NUL
    0xd51c2-0xd54c0: 766 bytes of NUL
    0xd5521-0xd60e1: 3,008 bytes of NUL
    0xd60f9-0xd6148: 79 bytes of NUL
    0xd6229-0xd6280: 87 bytes of NUL
    0xd62a1-0xd6480: 479 bytes of NUL
    0xd648c-0xd7678: 4,588 bytes of NUL
    0xd76b0-0xd7778: 200 bytes of NUL
    0xd8faf-0xd911e: 367 bytes of NUL
    0xd913d-0xd9220: 227 bytes of NUL
    0xd9297-0xd942c: 405 bytes of NUL
    0xd954b-0xd95c8: 125 bytes of NUL
    0xd97b4-0xd9820: 108 bytes of NUL
    0xd9a06-0xd9a48: 66 bytes of NUL
    0xd9a60-0xd9aa0: 64 bytes of NUL
    0xd9ac2-0xd9b2c: 106 bytes of NUL
    0xd9b4e-0xd9bb4: 102 bytes of NUL
    0xd9bc6-0xd9c10: 74 bytes of NUL
    0xd9d62-0xda060: 766 bytes of NUL
    0xda0c1-0xdac81: 3,008 bytes of NUL
    0xdac99-0xdace8: 79 bytes of NUL
    0xdae89-0xdaee0: 87 bytes of NUL
    0xdaf01-0xdb0e0: 479 bytes of NUL
    0xdb0ec-0xdc2d8: 4,588 bytes of NUL
    0xdc310-0xdc3d8: 200 bytes of NUL
    0xddc0f-0xddd7e: 367 bytes of NUL
    0xddd9d-0xdde80: 227 bytes of NUL
    0xddef7-0xde08c: 405 bytes of NUL
    0xde1ab-0xde228: 125 bytes of NUL
    0xde414-0xde480: 108 bytes of NUL
    0xde666-0xde6a8: 66 bytes of NUL
    0xde6c0-0xde700: 64 bytes of NUL
    0xde722-0xde78c: 106 bytes of NUL
    0xde7ae-0xde814: 102 bytes of NUL
    0xde826-0xde870: 74 bytes of NUL
    0xde9c2-0xdecc0: 766 bytes of NUL
    0xded21-0xdf8e1: 3,008 bytes of NUL
    0xdf8f9-0xdf948: 79 bytes of NUL
    0xdfa29-0xdfa80: 87 bytes of NUL
    0xdfaa1-0xdfc80: 479 bytes of NUL
    0xdfc8c-0xe0e78: 4,588 bytes of NUL
    0xe0eb0-0xe0f78: 200 bytes of NUL
    0xe27af-0xe291e: 367 bytes of NUL
    0xe293d-0xe2a20: 227 bytes of NUL
    0xe2a97-0xe2c2c: 405 bytes of NUL
    0xe2d4b-0xe2dc8: 125 bytes of NUL
    0xe2fb4-0xe3020: 108 bytes of NUL
    0xe3206-0xe3248: 66 bytes of NUL
    0xe3260-0xe32a0: 64 bytes of NUL
    0xe32c2-0xe332c: 106 bytes of NUL
    0xe334e-0xe33b4: 102 bytes of NUL
    0xe33c6-0xe3410: 74 bytes of NUL
    0xe3562-0xe3864: 770 bytes of NUL
    0xe38b1-0xe4471: 3,008 bytes of NUL
    0xe4489-0xe44d8: 79 bytes of NUL
    0xe45b9-0xe4610: 87 bytes of NUL
    0xe4631-0xe4810: 479 bytes of NUL
    0xe481c-0xe5a08: 4,588 bytes of NUL
    0xe5a40-0xe5b08: 200 bytes of NUL
    0xe733f-0xe74ae: 367 bytes of NUL
    0xe74cd-0xe75b0: 227 bytes of NUL
    0xe7627-0xe77bc: 405 bytes of NUL
    0xe78db-0xe7958: 125 bytes of NUL
    0xe7b44-0xe7bb0: 108 bytes of NUL
    0xe7d96-0xe7dd8: 66 bytes of NUL
    0xe7df0-0xe7e30: 64 bytes of NUL
    0xe7e52-0xe7ebc: 106 bytes of NUL
    0xe7ede-0xe7f44: 102 bytes of NUL
    0xe7f56-0xe7fa0: 74 bytes of NUL
    0xe80f2-0xe83f4: 770 bytes of NUL
    0xe8441-0xe9001: 3,008 bytes of NUL
    0xe9019-0xe9068: 79 bytes of NUL
    0xe9149-0xe91a0: 87 bytes of NUL
    0xe91c1-0xe93a0: 479 bytes of NUL
    0xe93ac-0xea598: 4,588 bytes of NUL
    0xea5d0-0xea698: 200 bytes of NUL
    0xebecf-0xec03e: 367 bytes of NUL
    0xec05d-0xec140: 227 bytes of NUL
    0xec1b7-0xec34c: 405 bytes of NUL
    0xec46b-0xec4e8: 125 bytes of NUL
    0xec6d4-0xec740: 108 bytes of NUL
    0xec926-0xec968: 66 bytes of NUL
    0xec980-0xec9c0: 64 bytes of NUL
    0xec9e2-0xeca4c: 106 bytes of NUL
    0xeca6e-0xecad4: 102 bytes of NUL
    0xecae6-0xecb30: 74 bytes of NUL
    0xecc82-0xecf84: 770 bytes of NUL
    0xecfd1-0xedb91: 3,008 bytes of NUL
    0xedba9-0xedbf8: 79 bytes of NUL
    0xedcd9-0xedd30: 87 bytes of NUL
    0xedd51-0xedf30: 479 bytes of NUL
    0xedf3c-0xef128: 4,588 bytes of NUL
    0xef160-0xef228: 200 bytes of NUL
    0xf0a5f-0xf0bce: 367 bytes of NUL
    0xf0bed-0xf0cd0: 227 bytes of NUL
    0xf0d47-0xf0edc: 405 bytes of NUL
    0xf0ffb-0xf1078: 125 bytes of NUL
    0xf1264-0xf12d0: 108 bytes of NUL
    0xf14b6-0xf14f8: 66 bytes of NUL
    0xf1510-0xf1550: 64 bytes of NUL
    0xf1572-0xf15dc: 106 bytes of NUL
    0xf15fe-0xf1664: 102 bytes of NUL
    0xf1676-0xf16c0: 74 bytes of NUL
    0xf1812-0xf1b10: 766 bytes of NUL
    0xf1ee1-0xf2aa1: 3,008 bytes of NUL
    0xf2ab9-0xf2b08: 79 bytes of NUL
    0xf2be9-0xf2c40: 87 bytes of NUL
    0xf2c61-0xf2e40: 479 bytes of NUL
    0xf2e4c-0xf4038: 4,588 bytes of NUL
    0xf4070-0xf4138: 200 bytes of NUL
    0xf596f-0xf5ade: 367 bytes of NUL
    0xf5afd-0xf5be0: 227 bytes of NUL
    0xf5c57-0xf5dec: 405 bytes of NUL
    0xf5f0b-0xf5f88: 125 bytes of NUL
    0xf6174-0xf61e0: 108 bytes of NUL
    0xf63c6-0xf6408: 66 bytes of NUL
    0xf6420-0xf6460: 64 bytes of NUL
    0xf6482-0xf64ec: 106 bytes of NUL
    0xf650e-0xf6574: 102 bytes of NUL
    0xf6586-0xf65d0: 74 bytes of NUL
    0xf6722-0xf6a20: 766 bytes of NUL
    0xfc295-0xfc2f6: 97 bytes of 0x20
    0xfc30f-0xfc370: 97 bytes of 0x20
    0xfc389-0xfc3ea: 97 bytes of 0x20
    0xfc5be-0xfd5c0: 4,098 bytes of NUL
    0x10bf22-0x10bf78: 86 bytes of NUL
    0x10bfb2-0x10c020: 110 bytes of NUL
    0x10c05e-0x10c0a0: 66 bytes of NUL
    0x10cda4-0x10cdf7: 83 bytes of NUL
    0x118903-0x11a000: 5,885 bytes of NUL
    0x11a011-0x11a058: 71 bytes of NUL
    0x11a449-0x11a510: 199 bytes of NUL
    0x11a625-0x11a6a0: 123 bytes of NUL
    0x11a6a5-0x11a720: 123 bytes of NUL
    0x11a771-0x11a7ca: 89 bytes of NUL
    0x11a804-0x11a8ca: 198 bytes of NUL
    0x11a904-0x11a9e2: 222 bytes of NUL
    0x11aaa1-0x11aaf1: 80 bytes of NUL
    0x11acea-0x11ade0: 246 bytes of NUL
    0x11ade1-0x11ae28: 71 bytes of NUL
    0x11ae41-0x11ae88: 71 bytes of NUL
    0x11ae91-0x11aed8: 71 bytes of NUL
    0x11af21-0x11af68: 71 bytes of NUL
    0x11af71-0x11afb8: 71 bytes of NUL
    0x11b021-0x11b068: 71 bytes of NUL
    0x11b0c1-0x11b108: 71 bytes of NUL
    0x11b14e-0x11b22e: 224 bytes of NUL
    0x11b235-0x11b340: 267 bytes of NUL
    0x11b369-0x11b3b0: 71 bytes of NUL
    0x11b3e1-0x11b428: 71 bytes of NUL
    0x11b459-0x11b4a0: 71 bytes of NUL
    0x11b4d1-0x11b518: 71 bytes of NUL
    0x11b549-0x11b590: 71 bytes of NUL
    0x11b5c1-0x11b609: 72 bytes of NUL
    0x11b639-0x11b680: 71 bytes of NUL
    0x11b6b1-0x11b6f8: 71 bytes of NUL
    0x11b729-0x11b770: 71 bytes of NUL
    0x11b7a1-0x11b7e8: 71 bytes of NUL
    0x11b819-0x11b861: 72 bytes of NUL
    0x11b891-0x11b8d8: 71 bytes of NUL
    0x11b909-0x11b950: 71 bytes of NUL
    0x11b981-0x11b9c8: 71 bytes of NUL
    0x11b9f9-0x11ba40: 71 bytes of NUL
    0x11ba71-0x11bab8: 71 bytes of NUL
    0x11bae9-0x11bb30: 71 bytes of NUL
    0x11bb61-0x11bba8: 71 bytes of NUL
    0x11bbd9-0x11bc20: 71 bytes of NUL
    0x11bc51-0x11bc98: 71 bytes of NUL
    0x11bcc9-0x11bd10: 71 bytes of NUL
    0x11bd41-0x11bd88: 71 bytes of NUL
    0x11bdb9-0x11be00: 71 bytes of NUL
    0x11be31-0x11be78: 71 bytes of NUL
    0x11bea9-0x11bef0: 71 bytes of NUL
    0x11bf21-0x11bf68: 71 bytes of NUL
    0x11bf99-0x11bfe1: 72 bytes of NUL
    0x11c011-0x11c058: 71 bytes of NUL
    0x11c089-0x11c0d0: 71 bytes of NUL
    0x11c101-0x11c148: 71 bytes of NUL
    0x11c179-0x11c1c0: 71 bytes of NUL
    0x11c1f1-0x11c238: 71 bytes of NUL
    0x11c269-0x11c2b0: 71 bytes of NUL
    0x11c2e1-0x11c328: 71 bytes of NUL
    0x11c359-0x11c3a0: 71 bytes of NUL
    0x11c3bb-0x11c432: 119 bytes of NUL
    0x11c4a4-0x11c4f8: 84 bytes of NUL
    0x11c509-0x11c630: 295 bytes of NUL
    0x11c897-0x11cbe0: 841 bytes of NUL
    0x11cd1a-0x11cdf0: 214 bytes of NUL
    0x11cdfe-0x11cfb0: 434 bytes of NUL
    0x11cff8-0x11d570: 1,400 bytes of NUL
    0x11d579-0x11d628: 175 bytes of NUL
    0x11d991-0x11da58: 199 bytes of NUL
    0x11dac6-0x11dec0: 1,018 bytes of NUL
    0x11df1e-0x11df82: 100 bytes of NUL
    0x11df86-0x11dfe0: 90 bytes of NUL
    0x11dffe-0x11e0d0: 210 bytes of NUL
    0x11e159-0x11e5a8: 1,103 bytes of NUL
    0x11e5ae-0x11e611: 99 bytes of NUL
    0x11e616-0x354000: 2,316,778 bytes of NUL

================================================================================
  SUPPLEMENT S11: XREF CROSS-REFERENCE MAP
================================================================================

S11.1 CROSS-REFERENCE SUMMARY
    Mapping which code regions reference which data/strings...

    Total RIP-relative LEA instructions: 2211

================================================================================
  SUPPLEMENT S12: DATA TABLES AND STRUCTURES
================================================================================

S12.1 PATTERN TABLE STRUCTURE ANALYSIS
    Searching for the pattern signature table in data sections...

    IDA-style pattern strings found: 404
    0x1018e0: "74 ?? 49 8D 83 ?? ?? ?? ?? 39 50 04 74 ?"
    0x1018e1: "4 ?? 49 8D 83 ?? ?? ?? ?? 39 50 04 74 ??"
    0x1018e2: "?? 49 8D 83 ?? ?? ?? ?? 39 50 04 74 ??"
    0x1018e3: "?? 49 8D 83 ?? ?? ?? ?? 39 50 04 74 ?? F"
    0x1018e4: "? 49 8D 83 ?? ?? ?? ?? 39 50 04 74 ?? FF"
    0x1018e5: "49 8D 83 ?? ?? ?? ?? 39 50 04 74 ?? FF"
    0x1018e6: "49 8D 83 ?? ?? ?? ?? 39 50 04 74 ?? FF C"
    0x1018e7: "9 8D 83 ?? ?? ?? ?? 39 50 04 74 ?? FF C1"
    0x1018e8: "8D 83 ?? ?? ?? ?? 39 50 04 74 ?? FF C1"
    0x1018e9: "8D 83 ?? ?? ?? ?? 39 50 04 74 ?? FF C1 4"
    0x1018ea: "D 83 ?? ?? ?? ?? 39 50 04 74 ?? FF C1 48"
    0x1018eb: "83 ?? ?? ?? ?? 39 50 04 74 ?? FF C1 48"
    0x1018ec: "83 ?? ?? ?? ?? 39 50 04 74 ?? FF C1 48 8"
    0x1018ed: "3 ?? ?? ?? ?? 39 50 04 74 ?? FF C1 48 83"
    0x1018ee: "?? ?? ?? ?? 39 50 04 74 ?? FF C1 48 83"
    0x1018ef: "?? ?? ?? ?? 39 50 04 74 ?? FF C1 48 83 C"
    0x1018f0: "? ?? ?? ?? 39 50 04 74 ?? FF C1 48 83 C0"
    0x1018f1: "?? ?? ?? 39 50 04 74 ?? FF C1 48 83 C0"
    0x1018f2: "?? ?? ?? 39 50 04 74 ?? FF C1 48 83 C0 1"
    0x1018f3: "? ?? ?? 39 50 04 74 ?? FF C1 48 83 C0 18"
    0x1018f4: "?? ?? 39 50 04 74 ?? FF C1 48 83 C0 18"
    0x1018f5: "?? ?? 39 50 04 74 ?? FF C1 48 83 C0 18 4"
    0x1018f6: "? ?? 39 50 04 74 ?? FF C1 48 83 C0 18 41"
    0x1018f7: "?? 39 50 04 74 ?? FF C1 48 83 C0 18 41"
    0x1018f8: "?? 39 50 04 74 ?? FF C1 48 83 C0 18 41 3"
    0x1018fc: "9 50 04 74 ?? FF C1 48 83 C0 18 41 3B ??"
    0x1018fd: "50 04 74 ?? FF C1 48 83 C0 18 41 3B ??"
    0x1018fe: "50 04 74 ?? FF C1 48 83 C0 18 41 3B ?? 7"
    0x1018ff: "0 04 74 ?? FF C1 48 83 C0 18 41 3B ?? 72"
    0x101900: "04 74 ?? FF C1 48 83 C0 18 41 3B ?? 72"

================================================================================
  SUPPLEMENT S13: WINHTTP/LIBCURL BACKEND IDENTIFICATION
================================================================================

S13.1 HTTP BACKEND DETERMINATION

    WinHTTP: YES
    WinINet: YES
    libcurl: YES
    Raw sockets (Winsock): YES

    HTTP API function references:
    "curl_easy_init": 1 references
    "curl_easy_setopt": 1 references
    "curl_easy_perform": 2 references
    "curl_easy_getinfo": 1 references
    "curl_easy_cleanup": 1 references
    "curl_slist_append": 1 references
    "curl_slist_free_all": 1 references